(lp0
(S'cppflags'
p1
ccopy_reg
_reconstructor
p2
(cino.utils
SpaceList
p3
c__builtin__
list
p4
(lp5
S'-mmcu=atmega328p'
p6
aS'-DF_CPU=16000000L'
p7
aS'-DARDUINO=101'
p8
aS'-I/usr/share/arduino/hardware/arduino/cores/arduino'
p9
aS'-ffunction-sections'
p10
aS'-fdata-sections'
p11
aS'-g'
p12
aS'-Os'
p13
aS'-w'
p14
aS'-I/usr/share/arduino/hardware/arduino/variants/eightanaloginputs'
p15
aS'-I/usr/share/arduino/libraries/SoftwareSerial'
p16
aS'-I/usr/share/arduino/libraries/RS485_protocol'
p17
aS'-I/usr/share/arduino/libraries/LnFunctions'
p18
aS'-I/usr/share/arduino/hardware/arduino/cores/arduino'
p19
atp20
Rp21
tp22
a(S'cxx'
p23
S'/usr/bin/avr-g++'
p24
tp25
a(S'arduino_libraries_dir'
p26
S'/usr/share/arduino/libraries'
p27
tp28
a(S'avrdude'
p29
S'/usr/share/arduino/hardware/tools/avrdude'
p30
tp31
a(S'ar'
p32
S'/usr/bin/avr-ar'
p33
tp34
a(S'names'
p35
(dp36
S'cpp'
p37
S'%s.cpp'
p38
sS'obj'
p39
S'%s.o'
p40
sS'deps'
p41
S'%s.d'
p42
sS'lib'
p43
S'lib%s.a'
p44
stp45
a(S'ldflags'
p46
g2
(g3
g4
(lp47
g6
aS'-Wl,-Os'
p48
aS'-Wl,--gc-sections'
p49
atp50
Rp51
tp52
a(S'arduino_lib_version'
p53
g2
(cino.environment
Version
p54
c__builtin__
tuple
p55
(I1
I0
I1
tp56
tp57
Rp58
tp59
a(S'objcopy'
p60
S'/usr/bin/avr-objcopy'
p61
tp62
a(S'board_models'
p63
cino.environment
BoardModels
p64
((lp65
(lp66
S'uno'
p67
a(dp68
S'build'
p69
(dp70
S'core'
p71
S'arduino'
p72
sS'mcu'
p73
S'atmega328p'
p74
sS'f_cpu'
p75
S'16000000L'
p76
sS'variant'
p77
S'standard'
p78
ssS'bootloader'
p79
(dp80
S'extended_fuses'
p81
S'0x05'
p82
sS'high_fuses'
p83
S'0xde'
p84
sS'low_fuses'
p85
S'0xff'
p86
sS'lock_bits'
p87
S'0x0F'
p88
sS'file'
p89
S'optiboot_atmega328.hex'
p90
sS'path'
p91
S'optiboot'
p92
sS'unlock_bits'
p93
S'0x3F'
p94
ssS'upload'
p95
(dp96
S'protocol'
p97
S'arduino'
p98
sS'maximum_size'
p99
S'32256'
p100
sS'speed'
p101
S'115200'
p102
ssS'name'
p103
S'Arduino Uno'
p104
saa(lp105
S'atmega328'
p106
a(dp107
S'build'
p108
(dp109
S'core'
p110
S'arduino'
p111
sS'mcu'
p112
S'atmega328p'
p113
sS'f_cpu'
p114
S'16000000L'
p115
sS'variant'
p116
S'standard'
p117
ssS'bootloader'
p118
(dp119
S'extended_fuses'
p120
S'0x05'
p121
sS'high_fuses'
p122
S'0xDA'
p123
sS'low_fuses'
p124
S'0xFF'
p125
sS'lock_bits'
p126
S'0x0F'
p127
sS'file'
p128
S'ATmegaBOOT_168_atmega328.hex'
p129
sS'path'
p130
S'atmega'
p131
sS'unlock_bits'
p132
S'0x3F'
p133
ssS'upload'
p134
(dp135
S'protocol'
p136
S'arduino'
p137
sS'maximum_size'
p138
S'30720'
p139
sS'speed'
p140
S'57600'
p141
ssS'name'
p142
S'Arduino Duemilanove w/ ATmega328'
p143
saa(lp144
S'diecimila'
p145
a(dp146
S'build'
p147
(dp148
S'core'
p149
S'arduino'
p150
sS'mcu'
p151
S'atmega168'
p152
sS'f_cpu'
p153
S'16000000L'
p154
sS'variant'
p155
S'standard'
p156
ssS'bootloader'
p157
(dp158
S'extended_fuses'
p159
S'0x00'
p160
sS'high_fuses'
p161
S'0xdd'
p162
sS'low_fuses'
p163
S'0xff'
p164
sS'lock_bits'
p165
S'0x0F'
p166
sS'file'
p167
S'ATmegaBOOT_168_diecimila.hex'
p168
sS'path'
p169
S'atmega'
p170
sS'unlock_bits'
p171
S'0x3F'
p172
ssS'upload'
p173
(dp174
S'protocol'
p175
S'arduino'
p176
sS'maximum_size'
p177
S'14336'
p178
sS'speed'
p179
S'19200'
p180
ssS'name'
p181
S'Arduino Diecimila or Duemilanove w/ ATmega168'
p182
saa(lp183
S'nano328'
p184
a(dp185
S'build'
p186
(dp187
S'core'
p188
S'arduino'
p189
sS'mcu'
p190
S'atmega328p'
p191
sS'f_cpu'
p192
S'16000000L'
p193
sS'variant'
p194
S'eightanaloginputs'
p195
ssS'bootloader'
p196
(dp197
S'extended_fuses'
p198
S'0x05'
p199
sS'high_fuses'
p200
S'0xDA'
p201
sS'low_fuses'
p202
S'0xFF'
p203
sS'lock_bits'
p204
S'0x0F'
p205
sS'file'
p206
S'ATmegaBOOT_168_atmega328.hex'
p207
sS'path'
p208
S'atmega'
p209
sS'unlock_bits'
p210
S'0x3F'
p211
ssS'upload'
p212
(dp213
S'protocol'
p214
S'arduino'
p215
sS'maximum_size'
p216
S'30720'
p217
sS'speed'
p218
S'57600'
p219
ssS'name'
p220
S'Arduino Nano w/ ATmega328'
p221
saa(lp222
S'nano'
p223
a(dp224
S'build'
p225
(dp226
S'core'
p227
S'arduino'
p228
sS'mcu'
p229
S'atmega168'
p230
sS'f_cpu'
p231
S'16000000L'
p232
sS'variant'
p233
S'eightanaloginputs'
p234
ssS'bootloader'
p235
(dp236
S'extended_fuses'
p237
S'0x00'
p238
sS'high_fuses'
p239
S'0xdd'
p240
sS'low_fuses'
p241
S'0xff'
p242
sS'lock_bits'
p243
S'0x0F'
p244
sS'file'
p245
S'ATmegaBOOT_168_diecimila.hex'
p246
sS'path'
p247
S'atmega'
p248
sS'unlock_bits'
p249
S'0x3F'
p250
ssS'upload'
p251
(dp252
S'protocol'
p253
S'arduino'
p254
sS'maximum_size'
p255
S'14336'
p256
sS'speed'
p257
S'19200'
p258
ssS'name'
p259
S'Arduino Nano w/ ATmega168'
p260
saa(lp261
S'mega2560'
p262
a(dp263
S'build'
p264
(dp265
S'core'
p266
S'arduino'
p267
sS'mcu'
p268
S'atmega2560'
p269
sS'f_cpu'
p270
S'16000000L'
p271
sS'variant'
p272
S'mega'
p273
ssS'bootloader'
p274
(dp275
S'extended_fuses'
p276
S'0xFD'
p277
sS'high_fuses'
p278
S'0xD8'
p279
sS'low_fuses'
p280
S'0xFF'
p281
sS'lock_bits'
p282
S'0x0F'
p283
sS'file'
p284
S'stk500boot_v2_mega2560.hex'
p285
sS'path'
p286
S'stk500v2'
p287
sS'unlock_bits'
p288
S'0x3F'
p289
ssS'upload'
p290
(dp291
S'protocol'
p292
S'stk500v2'
p293
sS'maximum_size'
p294
S'258048'
p295
sS'speed'
p296
S'115200'
p297
ssS'name'
p298
S'Arduino Mega 2560 or Mega ADK'
p299
saa(lp300
S'mega'
p301
a(dp302
S'build'
p303
(dp304
S'core'
p305
S'arduino'
p306
sS'mcu'
p307
S'atmega1280'
p308
sS'f_cpu'
p309
S'16000000L'
p310
sS'variant'
p311
S'mega'
p312
ssS'bootloader'
p313
(dp314
S'extended_fuses'
p315
S'0xF5'
p316
sS'high_fuses'
p317
S'0xDA'
p318
sS'low_fuses'
p319
S'0xFF'
p320
sS'lock_bits'
p321
S'0x0F'
p322
sS'file'
p323
S'ATmegaBOOT_168_atmega1280.hex'
p324
sS'path'
p325
S'atmega'
p326
sS'unlock_bits'
p327
S'0x3F'
p328
ssS'upload'
p329
(dp330
S'protocol'
p331
S'arduino'
p332
sS'maximum_size'
p333
S'126976'
p334
sS'speed'
p335
S'57600'
p336
ssS'name'
p337
S'Arduino Mega (ATmega1280)'
p338
saa(lp339
S'leonardo'
p340
a(dp341
S'build'
p342
(dp343
S'core'
p344
S'arduino'
p345
sS'f_cpu'
p346
S'16000000L'
p347
sS'vid'
p348
S'0x2341'
p349
sS'pid'
p350
S'0x8036'
p351
sS'variant'
p352
S'leonardo'
p353
sS'mcu'
p354
S'atmega32u4'
p355
ssS'bootloader'
p356
(dp357
S'extended_fuses'
p358
S'0xcb'
p359
sS'high_fuses'
p360
S'0xd8'
p361
sS'low_fuses'
p362
S'0xff'
p363
sS'lock_bits'
p364
S'0x2F'
p365
sS'file'
p366
S'Caterina-Leonardo.hex'
p367
sS'path'
p368
S'caterina'
p369
sS'unlock_bits'
p370
S'0x3F'
p371
ssS'upload'
p372
(dp373
S'protocol'
p374
S'avr109'
p375
sS'maximum_size'
p376
S'28672'
p377
sS'speed'
p378
S'57600'
p379
sS'disable_flushing'
p380
S'true'
p381
ssS'name'
p382
S'Arduino Leonardo'
p383
saa(lp384
S'mini328'
p385
a(dp386
S'build'
p387
(dp388
S'core'
p389
S'arduino'
p390
sS'mcu'
p391
S'atmega328p'
p392
sS'f_cpu'
p393
S'16000000L'
p394
sS'variant'
p395
S'eightanaloginputs'
p396
ssS'bootloader'
p397
(dp398
S'extended_fuses'
p399
S'0x05'
p400
sS'high_fuses'
p401
S'0xd8'
p402
sS'low_fuses'
p403
S'0xff'
p404
sS'lock_bits'
p405
S'0x0F'
p406
sS'file'
p407
S'optiboot_atmega328-Mini.hex'
p408
sS'path'
p409
S'optiboot'
p410
sS'unlock_bits'
p411
S'0x3F'
p412
ssS'upload'
p413
(dp414
S'protocol'
p415
S'arduino'
p416
sS'maximum_size'
p417
S'28672'
p418
sS'speed'
p419
S'115200'
p420
ssS'name'
p421
S'Arduino Mini w/ ATmega328'
p422
saa(lp423
S'mini'
p424
a(dp425
S'build'
p426
(dp427
S'core'
p428
S'arduino'
p429
sS'mcu'
p430
S'atmega168'
p431
sS'f_cpu'
p432
S'16000000L'
p433
sS'variant'
p434
S'eightanaloginputs'
p435
ssS'bootloader'
p436
(dp437
S'extended_fuses'
p438
S'0x00'
p439
sS'high_fuses'
p440
S'0xdd'
p441
sS'low_fuses'
p442
S'0xff'
p443
sS'lock_bits'
p444
S'0x0F'
p445
sS'file'
p446
S'ATmegaBOOT_168_ng.hex'
p447
sS'path'
p448
S'atmega'
p449
sS'unlock_bits'
p450
S'0x3F'
p451
ssS'upload'
p452
(dp453
S'protocol'
p454
S'arduino'
p455
sS'maximum_size'
p456
S'14336'
p457
sS'speed'
p458
S'19200'
p459
ssS'name'
p460
S'Arduino Mini w/ ATmega168'
p461
saa(lp462
S'ethernet'
p463
a(dp464
S'build'
p465
(dp466
S'variant'
p467
S'standard'
p468
sS'mcu'
p469
S'atmega328p'
p470
sS'f_cpu'
p471
S'16000000L'
p472
sS'core'
p473
S'arduino'
p474
ssS'bootloader'
p475
(dp476
S'extended_fuses'
p477
S'0x05'
p478
sS'high_fuses'
p479
S'0xde'
p480
sS'low_fuses'
p481
S'0xff'
p482
sS'lock_bits'
p483
S'0x0F'
p484
sS'file'
p485
S'optiboot_atmega328.hex'
p486
sS'path'
p487
S'optiboot'
p488
sS'unlock_bits'
p489
S'0x3F'
p490
ssS'upload'
p491
(dp492
S'protocol'
p493
S'arduino'
p494
sS'maximum_size'
p495
S'32256'
p496
sS'speed'
p497
S'115200'
p498
ssS'name'
p499
S'Arduino Ethernet'
p500
saa(lp501
S'fio'
p502
a(dp503
S'build'
p504
(dp505
S'core'
p506
S'arduino'
p507
sS'mcu'
p508
S'atmega328p'
p509
sS'f_cpu'
p510
S'8000000L'
p511
sS'variant'
p512
S'eightanaloginputs'
p513
ssS'bootloader'
p514
(dp515
S'extended_fuses'
p516
S'0x05'
p517
sS'high_fuses'
p518
S'0xDA'
p519
sS'low_fuses'
p520
S'0xFF'
p521
sS'lock_bits'
p522
S'0x0F'
p523
sS'file'
p524
S'ATmegaBOOT_168_atmega328_pro_8MHz.hex'
p525
sS'path'
p526
S'arduino:atmega'
p527
sS'unlock_bits'
p528
S'0x3F'
p529
ssS'upload'
p530
(dp531
S'protocol'
p532
S'arduino'
p533
sS'maximum_size'
p534
S'30720'
p535
sS'speed'
p536
S'57600'
p537
ssS'name'
p538
S'Arduino Fio'
p539
saa(lp540
S'bt328'
p541
a(dp542
S'build'
p543
(dp544
S'core'
p545
S'arduino'
p546
sS'mcu'
p547
S'atmega328p'
p548
sS'f_cpu'
p549
S'16000000L'
p550
sS'variant'
p551
S'eightanaloginputs'
p552
ssS'bootloader'
p553
(dp554
S'extended_fuses'
p555
S'0x05'
p556
sS'high_fuses'
p557
S'0xd8'
p558
sS'low_fuses'
p559
S'0xff'
p560
sS'lock_bits'
p561
S'0x0F'
p562
sS'file'
p563
S'ATmegaBOOT_168_atmega328_bt.hex'
p564
sS'path'
p565
S'bt'
p566
sS'unlock_bits'
p567
S'0x3F'
p568
ssS'upload'
p569
(dp570
S'protocol'
p571
S'arduino'
p572
sS'maximum_size'
p573
S'28672'
p574
sS'speed'
p575
S'19200'
p576
sS'disable_flushing'
p577
S'true'
p578
ssS'name'
p579
S'Arduino BT w/ ATmega328'
p580
saa(lp581
S'bt'
p582
a(dp583
S'build'
p584
(dp585
S'core'
p586
S'arduino'
p587
sS'mcu'
p588
S'atmega168'
p589
sS'f_cpu'
p590
S'16000000L'
p591
sS'variant'
p592
S'eightanaloginputs'
p593
ssS'bootloader'
p594
(dp595
S'extended_fuses'
p596
S'0x00'
p597
sS'high_fuses'
p598
S'0xdd'
p599
sS'low_fuses'
p600
S'0xff'
p601
sS'lock_bits'
p602
S'0x0F'
p603
sS'file'
p604
S'ATmegaBOOT_168.hex'
p605
sS'path'
p606
S'bt'
p607
sS'unlock_bits'
p608
S'0x3F'
p609
ssS'upload'
p610
(dp611
S'protocol'
p612
S'arduino'
p613
sS'maximum_size'
p614
S'14336'
p615
sS'speed'
p616
S'19200'
p617
sS'disable_flushing'
p618
S'true'
p619
ssS'name'
p620
S'Arduino BT w/ ATmega168'
p621
saa(lp622
S'lilypad328'
p623
a(dp624
S'build'
p625
(dp626
S'core'
p627
S'arduino'
p628
sS'mcu'
p629
S'atmega328p'
p630
sS'f_cpu'
p631
S'8000000L'
p632
sS'variant'
p633
S'standard'
p634
ssS'bootloader'
p635
(dp636
S'extended_fuses'
p637
S'0x05'
p638
sS'high_fuses'
p639
S'0xDA'
p640
sS'low_fuses'
p641
S'0xFF'
p642
sS'lock_bits'
p643
S'0x0F'
p644
sS'file'
p645
S'ATmegaBOOT_168_atmega328_pro_8MHz.hex'
p646
sS'path'
p647
S'atmega'
p648
sS'unlock_bits'
p649
S'0x3F'
p650
ssS'upload'
p651
(dp652
S'protocol'
p653
S'arduino'
p654
sS'maximum_size'
p655
S'30720'
p656
sS'speed'
p657
S'57600'
p658
ssS'name'
p659
S'LilyPad Arduino w/ ATmega328'
p660
saa(lp661
S'lilypad'
p662
a(dp663
S'build'
p664
(dp665
S'core'
p666
S'arduino'
p667
sS'mcu'
p668
S'atmega168'
p669
sS'f_cpu'
p670
S'8000000L'
p671
sS'variant'
p672
S'standard'
p673
ssS'bootloader'
p674
(dp675
S'extended_fuses'
p676
S'0x00'
p677
sS'high_fuses'
p678
S'0xdd'
p679
sS'low_fuses'
p680
S'0xe2'
p681
sS'lock_bits'
p682
S'0x0F'
p683
sS'file'
p684
S'LilyPadBOOT_168.hex'
p685
sS'path'
p686
S'lilypad'
p687
sS'unlock_bits'
p688
S'0x3F'
p689
ssS'upload'
p690
(dp691
S'protocol'
p692
S'arduino'
p693
sS'maximum_size'
p694
S'14336'
p695
sS'speed'
p696
S'19200'
p697
ssS'name'
p698
S'LilyPad Arduino w/ ATmega168'
p699
saa(lp700
S'pro5v328'
p701
a(dp702
S'build'
p703
(dp704
S'core'
p705
S'arduino'
p706
sS'mcu'
p707
S'atmega328p'
p708
sS'f_cpu'
p709
S'16000000L'
p710
sS'variant'
p711
S'standard'
p712
ssS'bootloader'
p713
(dp714
S'extended_fuses'
p715
S'0x05'
p716
sS'high_fuses'
p717
S'0xDA'
p718
sS'low_fuses'
p719
S'0xFF'
p720
sS'lock_bits'
p721
S'0x0F'
p722
sS'file'
p723
S'ATmegaBOOT_168_atmega328.hex'
p724
sS'path'
p725
S'atmega'
p726
sS'unlock_bits'
p727
S'0x3F'
p728
ssS'upload'
p729
(dp730
S'protocol'
p731
S'arduino'
p732
sS'maximum_size'
p733
S'30720'
p734
sS'speed'
p735
S'57600'
p736
ssS'name'
p737
S'Arduino Pro or Pro Mini (5V, 16 MHz) w/ ATmega328'
p738
saa(lp739
S'pro5v'
p740
a(dp741
S'build'
p742
(dp743
S'core'
p744
S'arduino'
p745
sS'mcu'
p746
S'atmega168'
p747
sS'f_cpu'
p748
S'16000000L'
p749
sS'variant'
p750
S'standard'
p751
ssS'bootloader'
p752
(dp753
S'extended_fuses'
p754
S'0x00'
p755
sS'high_fuses'
p756
S'0xdd'
p757
sS'low_fuses'
p758
S'0xff'
p759
sS'lock_bits'
p760
S'0x0F'
p761
sS'file'
p762
S'ATmegaBOOT_168_diecimila.hex'
p763
sS'path'
p764
S'atmega'
p765
sS'unlock_bits'
p766
S'0x3F'
p767
ssS'upload'
p768
(dp769
S'protocol'
p770
S'arduino'
p771
sS'maximum_size'
p772
S'14336'
p773
sS'speed'
p774
S'19200'
p775
ssS'name'
p776
S'Arduino Pro or Pro Mini (5V, 16 MHz) w/ ATmega168'
p777
saa(lp778
S'pro328'
p779
a(dp780
S'build'
p781
(dp782
S'core'
p783
S'arduino'
p784
sS'mcu'
p785
S'atmega328p'
p786
sS'f_cpu'
p787
S'8000000L'
p788
sS'variant'
p789
S'standard'
p790
ssS'bootloader'
p791
(dp792
S'extended_fuses'
p793
S'0x05'
p794
sS'high_fuses'
p795
S'0xDA'
p796
sS'low_fuses'
p797
S'0xFF'
p798
sS'lock_bits'
p799
S'0x0F'
p800
sS'file'
p801
S'ATmegaBOOT_168_atmega328_pro_8MHz.hex'
p802
sS'path'
p803
S'atmega'
p804
sS'unlock_bits'
p805
S'0x3F'
p806
ssS'upload'
p807
(dp808
S'protocol'
p809
S'arduino'
p810
sS'maximum_size'
p811
S'30720'
p812
sS'speed'
p813
S'57600'
p814
ssS'name'
p815
S'Arduino Pro or Pro Mini (3.3V, 8 MHz) w/ ATmega328'
p816
saa(lp817
S'pro'
p818
a(dp819
S'build'
p820
(dp821
S'core'
p822
S'arduino'
p823
sS'mcu'
p824
S'atmega168'
p825
sS'f_cpu'
p826
S'8000000L'
p827
sS'variant'
p828
S'standard'
p829
ssS'bootloader'
p830
(dp831
S'extended_fuses'
p832
S'0x00'
p833
sS'high_fuses'
p834
S'0xdd'
p835
sS'low_fuses'
p836
S'0xc6'
p837
sS'lock_bits'
p838
S'0x0F'
p839
sS'file'
p840
S'ATmegaBOOT_168_pro_8MHz.hex'
p841
sS'path'
p842
S'atmega'
p843
sS'unlock_bits'
p844
S'0x3F'
p845
ssS'upload'
p846
(dp847
S'protocol'
p848
S'arduino'
p849
sS'maximum_size'
p850
S'14336'
p851
sS'speed'
p852
S'19200'
p853
ssS'name'
p854
S'Arduino Pro or Pro Mini (3.3V, 8 MHz) w/ ATmega168'
p855
saa(lp856
S'atmega168'
p857
a(dp858
S'build'
p859
(dp860
S'core'
p861
S'arduino'
p862
sS'mcu'
p863
S'atmega168'
p864
sS'f_cpu'
p865
S'16000000L'
p866
sS'variant'
p867
S'standard'
p868
ssS'bootloader'
p869
(dp870
S'extended_fuses'
p871
S'0x00'
p872
sS'high_fuses'
p873
S'0xdd'
p874
sS'low_fuses'
p875
S'0xff'
p876
sS'lock_bits'
p877
S'0x0F'
p878
sS'file'
p879
S'ATmegaBOOT_168_ng.hex'
p880
sS'path'
p881
S'atmega'
p882
sS'unlock_bits'
p883
S'0x3F'
p884
ssS'upload'
p885
(dp886
S'protocol'
p887
S'arduino'
p888
sS'maximum_size'
p889
S'14336'
p890
sS'speed'
p891
S'19200'
p892
ssS'name'
p893
S'Arduino NG or older w/ ATmega168'
p894
saa(lp895
S'atmega8'
p896
a(dp897
S'build'
p898
(dp899
S'core'
p900
S'arduino'
p901
sS'mcu'
p902
S'atmega8'
p903
sS'f_cpu'
p904
S'16000000L'
p905
sS'variant'
p906
S'standard'
p907
ssS'bootloader'
p908
(dp909
S'high_fuses'
p910
S'0xca'
p911
sS'low_fuses'
p912
S'0xdf'
p913
sS'lock_bits'
p914
S'0x0F'
p915
sS'file'
p916
S'ATmegaBOOT.hex'
p917
sS'path'
p918
S'atmega8'
p919
sS'unlock_bits'
p920
S'0x3F'
p921
ssS'upload'
p922
(dp923
S'protocol'
p924
S'arduino'
p925
sS'maximum_size'
p926
S'7168'
p927
sS'speed'
p928
S'19200'
p929
ssS'name'
p930
S'Arduino NG or older w/ ATmega8'
p931
saatp932
Rp933
(dp934
S'default'
p935
S'uno'
p936
sbtp937
a(S'used_libs'
p938
(lp939
S'/usr/share/arduino/libraries/SoftwareSerial'
p940
aS'/usr/share/arduino/libraries/RS485_protocol'
p941
aS'/usr/share/arduino/libraries/LnFunctions'
p942
aS'/usr/share/arduino/hardware/arduino/cores/arduino'
p943
atp944
a(S'make'
p945
S'/usr/bin/make'
p946
tp947
a(S'build_dir'
p948
S'.build/uno'
p949
tp950
a(S'cc'
p951
S'/usr/bin/avr-gcc'
p952
tp953
a(S'cflags'
p954
g2
(g3
g4
(lp955
tp956
Rp957
tp958
a(S'cxxflags'
p959
g2
(g3
g4
(lp960
S'-fno-exceptions'
p961
atp962
Rp963
tp964
a(S'arduino_variants_dir'
p965
S'/usr/share/arduino/hardware/arduino/variants'
p966
tp967
a(S'serial'
p968
S'/usr/bin/picocom'
p969
tp970
a(S'stty'
p971
S'/bin/stty'
p972
tp973
a(S'version.txt'
p974
S'/usr/share/arduino/lib/version.txt'
p975
tp976
a(S'arduino_core_dir'
p977
g943
tp978
a(S'boards.txt'
p979
S'/usr/share/arduino/hardware/arduino/boards.txt'
p980
tp981
a(S'avrdude.conf'
p982
S'/usr/share/arduino/hardware/tools/avrdude.conf'
p983
tp984
a(S'deps'
p985
g2
(g3
g4
(lp986
S'.build/nano328/src/dependencies.d'
p987
aS'.build/nano328/arduino/dependencies.d'
p988
aS'.build/nano328/LnFunctions/dependencies.d'
p989
aS'.build/nano328/SoftwareSerial/dependencies.d'
p990
aS'.build/nano328/RS485_protocol/dependencies.d'
p991
atp992
Rp993
tp994
a.