(lp0
(S'cppflags'
p1
ccopy_reg
_reconstructor
p2
(cino.utils
SpaceList
p3
c__builtin__
list
p4
(lp5
S'-mmcu=atmega328p'
p6
aS'-DF_CPU=16000000L'
p7
aS'-DARDUINO=101'
p8
aS'-I/usr/share/arduino/hardware/arduino/cores/arduino'
p9
aS'-ffunction-sections'
p10
aS'-fdata-sections'
p11
aS'-g'
p12
aS'-Os'
p13
aS'-w'
p14
aS'-I/usr/share/arduino/hardware/arduino/variants/eightanaloginputs'
p15
aS'-I/usr/share/arduino/libraries/LnFunctions'
p16
aS'-I/usr/share/arduino/libraries/VirtualWire115'
p17
aS'-I/usr/share/arduino/libraries/VirtualWire115/util'
p18
aS'-I/usr/share/arduino/libraries/VirtualWire115/doc'
p19
aS'-I/usr/share/arduino/hardware/arduino/cores/arduino'
p20
atp21
Rp22
tp23
a(S'cxx'
p24
S'/usr/bin/avr-g++'
p25
tp26
a(S'arduino_libraries_dir'
p27
S'/usr/share/arduino/libraries'
p28
tp29
a(S'avrdude'
p30
S'/usr/share/arduino/hardware/tools/avrdude'
p31
tp32
a(S'ar'
p33
S'/usr/bin/avr-ar'
p34
tp35
a(S'names'
p36
(dp37
S'cpp'
p38
S'%s.cpp'
p39
sS'obj'
p40
S'%s.o'
p41
sS'deps'
p42
S'%s.d'
p43
sS'lib'
p44
S'lib%s.a'
p45
stp46
a(S'ldflags'
p47
g2
(g3
g4
(lp48
g6
aS'-Wl,-Os'
p49
aS'-Wl,--gc-sections'
p50
atp51
Rp52
tp53
a(S'arduino_lib_version'
p54
g2
(cino.environment
Version
p55
c__builtin__
tuple
p56
(I1
I0
I1
tp57
tp58
Rp59
tp60
a(S'objcopy'
p61
S'/usr/bin/avr-objcopy'
p62
tp63
a(S'board_models'
p64
cino.environment
BoardModels
p65
((lp66
(lp67
S'uno'
p68
a(dp69
S'bootloader'
p70
(dp71
S'extended_fuses'
p72
S'0x05'
p73
sS'high_fuses'
p74
S'0xde'
p75
sS'low_fuses'
p76
S'0xff'
p77
sS'lock_bits'
p78
S'0x0F'
p79
sS'file'
p80
S'optiboot_atmega328.hex'
p81
sS'path'
p82
S'optiboot'
p83
sS'unlock_bits'
p84
S'0x3F'
p85
ssS'build'
p86
(dp87
S'core'
p88
S'arduino'
p89
sS'mcu'
p90
S'atmega328p'
p91
sS'f_cpu'
p92
S'16000000L'
p93
sS'variant'
p94
S'standard'
p95
ssS'name'
p96
S'Arduino Uno'
p97
sS'upload'
p98
(dp99
S'speed'
p100
S'115200'
p101
sS'maximum_size'
p102
S'32256'
p103
sS'protocol'
p104
S'arduino'
p105
ssaa(lp106
S'atmega328'
p107
a(dp108
S'bootloader'
p109
(dp110
S'extended_fuses'
p111
S'0x05'
p112
sS'high_fuses'
p113
S'0xDA'
p114
sS'low_fuses'
p115
S'0xFF'
p116
sS'lock_bits'
p117
S'0x0F'
p118
sS'file'
p119
S'ATmegaBOOT_168_atmega328.hex'
p120
sS'path'
p121
S'atmega'
p122
sS'unlock_bits'
p123
S'0x3F'
p124
ssS'build'
p125
(dp126
S'core'
p127
S'arduino'
p128
sS'mcu'
p129
S'atmega328p'
p130
sS'f_cpu'
p131
S'16000000L'
p132
sS'variant'
p133
S'standard'
p134
ssS'name'
p135
S'Arduino Duemilanove w/ ATmega328'
p136
sS'upload'
p137
(dp138
S'speed'
p139
S'57600'
p140
sS'maximum_size'
p141
S'30720'
p142
sS'protocol'
p143
S'arduino'
p144
ssaa(lp145
S'diecimila'
p146
a(dp147
S'bootloader'
p148
(dp149
S'extended_fuses'
p150
S'0x00'
p151
sS'high_fuses'
p152
S'0xdd'
p153
sS'low_fuses'
p154
S'0xff'
p155
sS'lock_bits'
p156
S'0x0F'
p157
sS'file'
p158
S'ATmegaBOOT_168_diecimila.hex'
p159
sS'path'
p160
S'atmega'
p161
sS'unlock_bits'
p162
S'0x3F'
p163
ssS'build'
p164
(dp165
S'core'
p166
S'arduino'
p167
sS'mcu'
p168
S'atmega168'
p169
sS'f_cpu'
p170
S'16000000L'
p171
sS'variant'
p172
S'standard'
p173
ssS'name'
p174
S'Arduino Diecimila or Duemilanove w/ ATmega168'
p175
sS'upload'
p176
(dp177
S'speed'
p178
S'19200'
p179
sS'maximum_size'
p180
S'14336'
p181
sS'protocol'
p182
S'arduino'
p183
ssaa(lp184
S'nano328'
p185
a(dp186
S'bootloader'
p187
(dp188
S'extended_fuses'
p189
S'0x05'
p190
sS'high_fuses'
p191
S'0xDA'
p192
sS'low_fuses'
p193
S'0xFF'
p194
sS'lock_bits'
p195
S'0x0F'
p196
sS'file'
p197
S'ATmegaBOOT_168_atmega328.hex'
p198
sS'path'
p199
S'atmega'
p200
sS'unlock_bits'
p201
S'0x3F'
p202
ssS'build'
p203
(dp204
S'core'
p205
S'arduino'
p206
sS'mcu'
p207
S'atmega328p'
p208
sS'f_cpu'
p209
S'16000000L'
p210
sS'variant'
p211
S'eightanaloginputs'
p212
ssS'name'
p213
S'Arduino Nano w/ ATmega328'
p214
sS'upload'
p215
(dp216
S'speed'
p217
S'57600'
p218
sS'maximum_size'
p219
S'30720'
p220
sS'protocol'
p221
S'arduino'
p222
ssaa(lp223
S'nano'
p224
a(dp225
S'bootloader'
p226
(dp227
S'extended_fuses'
p228
S'0x00'
p229
sS'high_fuses'
p230
S'0xdd'
p231
sS'low_fuses'
p232
S'0xff'
p233
sS'lock_bits'
p234
S'0x0F'
p235
sS'file'
p236
S'ATmegaBOOT_168_diecimila.hex'
p237
sS'path'
p238
S'atmega'
p239
sS'unlock_bits'
p240
S'0x3F'
p241
ssS'build'
p242
(dp243
S'core'
p244
S'arduino'
p245
sS'mcu'
p246
S'atmega168'
p247
sS'f_cpu'
p248
S'16000000L'
p249
sS'variant'
p250
S'eightanaloginputs'
p251
ssS'name'
p252
S'Arduino Nano w/ ATmega168'
p253
sS'upload'
p254
(dp255
S'speed'
p256
S'19200'
p257
sS'maximum_size'
p258
S'14336'
p259
sS'protocol'
p260
S'arduino'
p261
ssaa(lp262
S'mega2560'
p263
a(dp264
S'bootloader'
p265
(dp266
S'extended_fuses'
p267
S'0xFD'
p268
sS'high_fuses'
p269
S'0xD8'
p270
sS'low_fuses'
p271
S'0xFF'
p272
sS'lock_bits'
p273
S'0x0F'
p274
sS'file'
p275
S'stk500boot_v2_mega2560.hex'
p276
sS'path'
p277
S'stk500v2'
p278
sS'unlock_bits'
p279
S'0x3F'
p280
ssS'build'
p281
(dp282
S'core'
p283
S'arduino'
p284
sS'mcu'
p285
S'atmega2560'
p286
sS'f_cpu'
p287
S'16000000L'
p288
sS'variant'
p289
S'mega'
p290
ssS'name'
p291
S'Arduino Mega 2560 or Mega ADK'
p292
sS'upload'
p293
(dp294
S'speed'
p295
S'115200'
p296
sS'maximum_size'
p297
S'258048'
p298
sS'protocol'
p299
S'stk500v2'
p300
ssaa(lp301
S'mega'
p302
a(dp303
S'bootloader'
p304
(dp305
S'extended_fuses'
p306
S'0xF5'
p307
sS'high_fuses'
p308
S'0xDA'
p309
sS'low_fuses'
p310
S'0xFF'
p311
sS'lock_bits'
p312
S'0x0F'
p313
sS'file'
p314
S'ATmegaBOOT_168_atmega1280.hex'
p315
sS'path'
p316
S'atmega'
p317
sS'unlock_bits'
p318
S'0x3F'
p319
ssS'build'
p320
(dp321
S'core'
p322
S'arduino'
p323
sS'mcu'
p324
S'atmega1280'
p325
sS'f_cpu'
p326
S'16000000L'
p327
sS'variant'
p328
S'mega'
p329
ssS'name'
p330
S'Arduino Mega (ATmega1280)'
p331
sS'upload'
p332
(dp333
S'speed'
p334
S'57600'
p335
sS'maximum_size'
p336
S'126976'
p337
sS'protocol'
p338
S'arduino'
p339
ssaa(lp340
S'leonardo'
p341
a(dp342
S'bootloader'
p343
(dp344
S'extended_fuses'
p345
S'0xcb'
p346
sS'high_fuses'
p347
S'0xd8'
p348
sS'low_fuses'
p349
S'0xff'
p350
sS'lock_bits'
p351
S'0x2F'
p352
sS'file'
p353
S'Caterina-Leonardo.hex'
p354
sS'path'
p355
S'caterina'
p356
sS'unlock_bits'
p357
S'0x3F'
p358
ssS'build'
p359
(dp360
S'core'
p361
S'arduino'
p362
sS'f_cpu'
p363
S'16000000L'
p364
sS'vid'
p365
S'0x2341'
p366
sS'pid'
p367
S'0x8036'
p368
sS'variant'
p369
S'leonardo'
p370
sS'mcu'
p371
S'atmega32u4'
p372
ssS'name'
p373
S'Arduino Leonardo'
p374
sS'upload'
p375
(dp376
S'speed'
p377
S'57600'
p378
sS'maximum_size'
p379
S'28672'
p380
sS'protocol'
p381
S'avr109'
p382
sS'disable_flushing'
p383
S'true'
p384
ssaa(lp385
S'mini328'
p386
a(dp387
S'bootloader'
p388
(dp389
S'extended_fuses'
p390
S'0x05'
p391
sS'high_fuses'
p392
S'0xd8'
p393
sS'low_fuses'
p394
S'0xff'
p395
sS'lock_bits'
p396
S'0x0F'
p397
sS'file'
p398
S'optiboot_atmega328-Mini.hex'
p399
sS'path'
p400
S'optiboot'
p401
sS'unlock_bits'
p402
S'0x3F'
p403
ssS'build'
p404
(dp405
S'core'
p406
S'arduino'
p407
sS'mcu'
p408
S'atmega328p'
p409
sS'f_cpu'
p410
S'16000000L'
p411
sS'variant'
p412
S'eightanaloginputs'
p413
ssS'name'
p414
S'Arduino Mini w/ ATmega328'
p415
sS'upload'
p416
(dp417
S'speed'
p418
S'115200'
p419
sS'maximum_size'
p420
S'28672'
p421
sS'protocol'
p422
S'arduino'
p423
ssaa(lp424
S'mini'
p425
a(dp426
S'bootloader'
p427
(dp428
S'extended_fuses'
p429
S'0x00'
p430
sS'high_fuses'
p431
S'0xdd'
p432
sS'low_fuses'
p433
S'0xff'
p434
sS'lock_bits'
p435
S'0x0F'
p436
sS'file'
p437
S'ATmegaBOOT_168_ng.hex'
p438
sS'path'
p439
S'atmega'
p440
sS'unlock_bits'
p441
S'0x3F'
p442
ssS'build'
p443
(dp444
S'core'
p445
S'arduino'
p446
sS'mcu'
p447
S'atmega168'
p448
sS'f_cpu'
p449
S'16000000L'
p450
sS'variant'
p451
S'eightanaloginputs'
p452
ssS'name'
p453
S'Arduino Mini w/ ATmega168'
p454
sS'upload'
p455
(dp456
S'speed'
p457
S'19200'
p458
sS'maximum_size'
p459
S'14336'
p460
sS'protocol'
p461
S'arduino'
p462
ssaa(lp463
S'ethernet'
p464
a(dp465
S'bootloader'
p466
(dp467
S'extended_fuses'
p468
S'0x05'
p469
sS'high_fuses'
p470
S'0xde'
p471
sS'low_fuses'
p472
S'0xff'
p473
sS'lock_bits'
p474
S'0x0F'
p475
sS'file'
p476
S'optiboot_atmega328.hex'
p477
sS'path'
p478
S'optiboot'
p479
sS'unlock_bits'
p480
S'0x3F'
p481
ssS'build'
p482
(dp483
S'f_cpu'
p484
S'16000000L'
p485
sS'mcu'
p486
S'atmega328p'
p487
sS'variant'
p488
S'standard'
p489
sS'core'
p490
S'arduino'
p491
ssS'name'
p492
S'Arduino Ethernet'
p493
sS'upload'
p494
(dp495
S'speed'
p496
S'115200'
p497
sS'maximum_size'
p498
S'32256'
p499
sS'protocol'
p500
S'arduino'
p501
ssaa(lp502
S'fio'
p503
a(dp504
S'bootloader'
p505
(dp506
S'extended_fuses'
p507
S'0x05'
p508
sS'high_fuses'
p509
S'0xDA'
p510
sS'low_fuses'
p511
S'0xFF'
p512
sS'lock_bits'
p513
S'0x0F'
p514
sS'file'
p515
S'ATmegaBOOT_168_atmega328_pro_8MHz.hex'
p516
sS'path'
p517
S'arduino:atmega'
p518
sS'unlock_bits'
p519
S'0x3F'
p520
ssS'build'
p521
(dp522
S'core'
p523
S'arduino'
p524
sS'mcu'
p525
S'atmega328p'
p526
sS'f_cpu'
p527
S'8000000L'
p528
sS'variant'
p529
S'eightanaloginputs'
p530
ssS'name'
p531
S'Arduino Fio'
p532
sS'upload'
p533
(dp534
S'speed'
p535
S'57600'
p536
sS'maximum_size'
p537
S'30720'
p538
sS'protocol'
p539
S'arduino'
p540
ssaa(lp541
S'bt328'
p542
a(dp543
S'bootloader'
p544
(dp545
S'extended_fuses'
p546
S'0x05'
p547
sS'high_fuses'
p548
S'0xd8'
p549
sS'low_fuses'
p550
S'0xff'
p551
sS'lock_bits'
p552
S'0x0F'
p553
sS'file'
p554
S'ATmegaBOOT_168_atmega328_bt.hex'
p555
sS'path'
p556
S'bt'
p557
sS'unlock_bits'
p558
S'0x3F'
p559
ssS'build'
p560
(dp561
S'core'
p562
S'arduino'
p563
sS'mcu'
p564
S'atmega328p'
p565
sS'f_cpu'
p566
S'16000000L'
p567
sS'variant'
p568
S'eightanaloginputs'
p569
ssS'name'
p570
S'Arduino BT w/ ATmega328'
p571
sS'upload'
p572
(dp573
S'speed'
p574
S'19200'
p575
sS'maximum_size'
p576
S'28672'
p577
sS'protocol'
p578
S'arduino'
p579
sS'disable_flushing'
p580
S'true'
p581
ssaa(lp582
S'bt'
p583
a(dp584
S'bootloader'
p585
(dp586
S'extended_fuses'
p587
S'0x00'
p588
sS'high_fuses'
p589
S'0xdd'
p590
sS'low_fuses'
p591
S'0xff'
p592
sS'lock_bits'
p593
S'0x0F'
p594
sS'file'
p595
S'ATmegaBOOT_168.hex'
p596
sS'path'
p597
S'bt'
p598
sS'unlock_bits'
p599
S'0x3F'
p600
ssS'build'
p601
(dp602
S'core'
p603
S'arduino'
p604
sS'mcu'
p605
S'atmega168'
p606
sS'f_cpu'
p607
S'16000000L'
p608
sS'variant'
p609
S'eightanaloginputs'
p610
ssS'name'
p611
S'Arduino BT w/ ATmega168'
p612
sS'upload'
p613
(dp614
S'speed'
p615
S'19200'
p616
sS'maximum_size'
p617
S'14336'
p618
sS'protocol'
p619
S'arduino'
p620
sS'disable_flushing'
p621
S'true'
p622
ssaa(lp623
S'lilypad328'
p624
a(dp625
S'bootloader'
p626
(dp627
S'extended_fuses'
p628
S'0x05'
p629
sS'high_fuses'
p630
S'0xDA'
p631
sS'low_fuses'
p632
S'0xFF'
p633
sS'lock_bits'
p634
S'0x0F'
p635
sS'file'
p636
S'ATmegaBOOT_168_atmega328_pro_8MHz.hex'
p637
sS'path'
p638
S'atmega'
p639
sS'unlock_bits'
p640
S'0x3F'
p641
ssS'build'
p642
(dp643
S'core'
p644
S'arduino'
p645
sS'mcu'
p646
S'atmega328p'
p647
sS'f_cpu'
p648
S'8000000L'
p649
sS'variant'
p650
S'standard'
p651
ssS'name'
p652
S'LilyPad Arduino w/ ATmega328'
p653
sS'upload'
p654
(dp655
S'speed'
p656
S'57600'
p657
sS'maximum_size'
p658
S'30720'
p659
sS'protocol'
p660
S'arduino'
p661
ssaa(lp662
S'lilypad'
p663
a(dp664
S'bootloader'
p665
(dp666
S'extended_fuses'
p667
S'0x00'
p668
sS'high_fuses'
p669
S'0xdd'
p670
sS'low_fuses'
p671
S'0xe2'
p672
sS'lock_bits'
p673
S'0x0F'
p674
sS'file'
p675
S'LilyPadBOOT_168.hex'
p676
sS'path'
p677
S'lilypad'
p678
sS'unlock_bits'
p679
S'0x3F'
p680
ssS'build'
p681
(dp682
S'core'
p683
S'arduino'
p684
sS'mcu'
p685
S'atmega168'
p686
sS'f_cpu'
p687
S'8000000L'
p688
sS'variant'
p689
S'standard'
p690
ssS'name'
p691
S'LilyPad Arduino w/ ATmega168'
p692
sS'upload'
p693
(dp694
S'speed'
p695
S'19200'
p696
sS'maximum_size'
p697
S'14336'
p698
sS'protocol'
p699
S'arduino'
p700
ssaa(lp701
S'pro5v328'
p702
a(dp703
S'bootloader'
p704
(dp705
S'extended_fuses'
p706
S'0x05'
p707
sS'high_fuses'
p708
S'0xDA'
p709
sS'low_fuses'
p710
S'0xFF'
p711
sS'lock_bits'
p712
S'0x0F'
p713
sS'file'
p714
S'ATmegaBOOT_168_atmega328.hex'
p715
sS'path'
p716
S'atmega'
p717
sS'unlock_bits'
p718
S'0x3F'
p719
ssS'build'
p720
(dp721
S'core'
p722
S'arduino'
p723
sS'mcu'
p724
S'atmega328p'
p725
sS'f_cpu'
p726
S'16000000L'
p727
sS'variant'
p728
S'standard'
p729
ssS'name'
p730
S'Arduino Pro or Pro Mini (5V, 16 MHz) w/ ATmega328'
p731
sS'upload'
p732
(dp733
S'speed'
p734
S'57600'
p735
sS'maximum_size'
p736
S'30720'
p737
sS'protocol'
p738
S'arduino'
p739
ssaa(lp740
S'pro5v'
p741
a(dp742
S'bootloader'
p743
(dp744
S'extended_fuses'
p745
S'0x00'
p746
sS'high_fuses'
p747
S'0xdd'
p748
sS'low_fuses'
p749
S'0xff'
p750
sS'lock_bits'
p751
S'0x0F'
p752
sS'file'
p753
S'ATmegaBOOT_168_diecimila.hex'
p754
sS'path'
p755
S'atmega'
p756
sS'unlock_bits'
p757
S'0x3F'
p758
ssS'build'
p759
(dp760
S'core'
p761
S'arduino'
p762
sS'mcu'
p763
S'atmega168'
p764
sS'f_cpu'
p765
S'16000000L'
p766
sS'variant'
p767
S'standard'
p768
ssS'name'
p769
S'Arduino Pro or Pro Mini (5V, 16 MHz) w/ ATmega168'
p770
sS'upload'
p771
(dp772
S'speed'
p773
S'19200'
p774
sS'maximum_size'
p775
S'14336'
p776
sS'protocol'
p777
S'arduino'
p778
ssaa(lp779
S'pro328'
p780
a(dp781
S'bootloader'
p782
(dp783
S'extended_fuses'
p784
S'0x05'
p785
sS'high_fuses'
p786
S'0xDA'
p787
sS'low_fuses'
p788
S'0xFF'
p789
sS'lock_bits'
p790
S'0x0F'
p791
sS'file'
p792
S'ATmegaBOOT_168_atmega328_pro_8MHz.hex'
p793
sS'path'
p794
S'atmega'
p795
sS'unlock_bits'
p796
S'0x3F'
p797
ssS'build'
p798
(dp799
S'core'
p800
S'arduino'
p801
sS'mcu'
p802
S'atmega328p'
p803
sS'f_cpu'
p804
S'8000000L'
p805
sS'variant'
p806
S'standard'
p807
ssS'name'
p808
S'Arduino Pro or Pro Mini (3.3V, 8 MHz) w/ ATmega328'
p809
sS'upload'
p810
(dp811
S'speed'
p812
S'57600'
p813
sS'maximum_size'
p814
S'30720'
p815
sS'protocol'
p816
S'arduino'
p817
ssaa(lp818
S'pro'
p819
a(dp820
S'bootloader'
p821
(dp822
S'extended_fuses'
p823
S'0x00'
p824
sS'high_fuses'
p825
S'0xdd'
p826
sS'low_fuses'
p827
S'0xc6'
p828
sS'lock_bits'
p829
S'0x0F'
p830
sS'file'
p831
S'ATmegaBOOT_168_pro_8MHz.hex'
p832
sS'path'
p833
S'atmega'
p834
sS'unlock_bits'
p835
S'0x3F'
p836
ssS'build'
p837
(dp838
S'core'
p839
S'arduino'
p840
sS'mcu'
p841
S'atmega168'
p842
sS'f_cpu'
p843
S'8000000L'
p844
sS'variant'
p845
S'standard'
p846
ssS'name'
p847
S'Arduino Pro or Pro Mini (3.3V, 8 MHz) w/ ATmega168'
p848
sS'upload'
p849
(dp850
S'speed'
p851
S'19200'
p852
sS'maximum_size'
p853
S'14336'
p854
sS'protocol'
p855
S'arduino'
p856
ssaa(lp857
S'atmega168'
p858
a(dp859
S'bootloader'
p860
(dp861
S'extended_fuses'
p862
S'0x00'
p863
sS'high_fuses'
p864
S'0xdd'
p865
sS'low_fuses'
p866
S'0xff'
p867
sS'lock_bits'
p868
S'0x0F'
p869
sS'file'
p870
S'ATmegaBOOT_168_ng.hex'
p871
sS'path'
p872
S'atmega'
p873
sS'unlock_bits'
p874
S'0x3F'
p875
ssS'build'
p876
(dp877
S'core'
p878
S'arduino'
p879
sS'mcu'
p880
S'atmega168'
p881
sS'f_cpu'
p882
S'16000000L'
p883
sS'variant'
p884
S'standard'
p885
ssS'name'
p886
S'Arduino NG or older w/ ATmega168'
p887
sS'upload'
p888
(dp889
S'speed'
p890
S'19200'
p891
sS'maximum_size'
p892
S'14336'
p893
sS'protocol'
p894
S'arduino'
p895
ssaa(lp896
S'atmega8'
p897
a(dp898
S'bootloader'
p899
(dp900
S'high_fuses'
p901
S'0xca'
p902
sS'low_fuses'
p903
S'0xdf'
p904
sS'lock_bits'
p905
S'0x0F'
p906
sS'file'
p907
S'ATmegaBOOT.hex'
p908
sS'path'
p909
S'atmega8'
p910
sS'unlock_bits'
p911
S'0x3F'
p912
ssS'build'
p913
(dp914
S'core'
p915
S'arduino'
p916
sS'mcu'
p917
S'atmega8'
p918
sS'f_cpu'
p919
S'16000000L'
p920
sS'variant'
p921
S'standard'
p922
ssS'name'
p923
S'Arduino NG or older w/ ATmega8'
p924
sS'upload'
p925
(dp926
S'speed'
p927
S'19200'
p928
sS'maximum_size'
p929
S'7168'
p930
sS'protocol'
p931
S'arduino'
p932
ssaatp933
Rp934
(dp935
S'default'
p936
S'uno'
p937
sbtp938
a(S'used_libs'
p939
(lp940
S'/usr/share/arduino/libraries/LnFunctions'
p941
aS'/usr/share/arduino/libraries/VirtualWire115'
p942
aS'/usr/share/arduino/hardware/arduino/cores/arduino'
p943
atp944
a(S'make'
p945
S'/usr/bin/make'
p946
tp947
a(S'build_dir'
p948
S'.build/uno'
p949
tp950
a(S'cc'
p951
S'/usr/bin/avr-gcc'
p952
tp953
a(S'cflags'
p954
g2
(g3
g4
(lp955
tp956
Rp957
tp958
a(S'cxxflags'
p959
g2
(g3
g4
(lp960
S'-fno-exceptions'
p961
atp962
Rp963
tp964
a(S'arduino_variants_dir'
p965
S'/usr/share/arduino/hardware/arduino/variants'
p966
tp967
a(S'serial'
p968
S'/usr/bin/picocom'
p969
tp970
a(S'stty'
p971
S'/bin/stty'
p972
tp973
a(S'version.txt'
p974
S'/usr/share/arduino/lib/version.txt'
p975
tp976
a(S'arduino_core_dir'
p977
g943
tp978
a(S'boards.txt'
p979
S'/usr/share/arduino/hardware/arduino/boards.txt'
p980
tp981
a(S'avrdude.conf'
p982
S'/usr/share/arduino/hardware/tools/avrdude.conf'
p983
tp984
a(S'deps'
p985
g2
(g3
g4
(lp986
S'.build/nano328/src/dependencies.d'
p987
aS'.build/nano328/arduino/dependencies.d'
p988
aS'.build/nano328/LnFunctions/dependencies.d'
p989
aS'.build/nano328/VirtualWire115/dependencies.d'
p990
atp991
Rp992
tp993
a.