(lp0
(S'cppflags'
p1
ccopy_reg
_reconstructor
p2
(cino.utils
SpaceList
p3
c__builtin__
list
p4
(lp5
S'-mmcu=atmega328p'
p6
aS'-DF_CPU=16000000L'
p7
aS'-DARDUINO=101'
p8
aS'-I/usr/share/arduino/hardware/arduino/cores/arduino'
p9
aS'-ffunction-sections'
p10
aS'-fdata-sections'
p11
aS'-g'
p12
aS'-Os'
p13
aS'-w'
p14
aS'-I/usr/share/arduino/hardware/arduino/variants/eightanaloginputs'
p15
aS'-I/usr/share/arduino/libraries/SoftwareSerial'
p16
aS'-I/usr/share/arduino/libraries/RS485_protocol'
p17
aS'-I/usr/share/arduino/hardware/arduino/cores/arduino'
p18
atp19
Rp20
tp21
a(S'cxx'
p22
S'/usr/bin/avr-g++'
p23
tp24
a(S'build_dir'
p25
S'.build/uno'
p26
tp27
a(S'avrdude'
p28
S'/usr/share/arduino/hardware/tools/avrdude'
p29
tp30
a(S'ar'
p31
S'/usr/bin/avr-ar'
p32
tp33
a(S'names'
p34
(dp35
S'cpp'
p36
S'%s.cpp'
p37
sS'obj'
p38
S'%s.o'
p39
sS'lib'
p40
S'lib%s.a'
p41
sS'deps'
p42
S'%s.d'
p43
stp44
a(S'ldflags'
p45
g2
(g3
g4
(lp46
g6
aS'-Wl,-Os'
p47
aS'-Wl,--gc-sections'
p48
atp49
Rp50
tp51
a(S'arduino_lib_version'
p52
g2
(cino.environment
Version
p53
c__builtin__
tuple
p54
(I1
I0
I1
tp55
tp56
Rp57
tp58
a(S'objcopy'
p59
S'/usr/bin/avr-objcopy'
p60
tp61
a(S'board_models'
p62
cino.environment
BoardModels
p63
((lp64
(lp65
S'uno'
p66
a(dp67
S'bootloader'
p68
(dp69
S'extended_fuses'
p70
S'0x05'
p71
sS'high_fuses'
p72
S'0xde'
p73
sS'low_fuses'
p74
S'0xff'
p75
sS'lock_bits'
p76
S'0x0F'
p77
sS'file'
p78
S'optiboot_atmega328.hex'
p79
sS'path'
p80
S'optiboot'
p81
sS'unlock_bits'
p82
S'0x3F'
p83
ssS'upload'
p84
(dp85
S'speed'
p86
S'115200'
p87
sS'maximum_size'
p88
S'32256'
p89
sS'protocol'
p90
S'arduino'
p91
ssS'name'
p92
S'Arduino Uno'
p93
sS'build'
p94
(dp95
S'core'
p96
S'arduino'
p97
sS'mcu'
p98
S'atmega328p'
p99
sS'f_cpu'
p100
S'16000000L'
p101
sS'variant'
p102
S'standard'
p103
ssaa(lp104
S'atmega328'
p105
a(dp106
S'bootloader'
p107
(dp108
S'extended_fuses'
p109
S'0x05'
p110
sS'high_fuses'
p111
S'0xDA'
p112
sS'low_fuses'
p113
S'0xFF'
p114
sS'lock_bits'
p115
S'0x0F'
p116
sS'file'
p117
S'ATmegaBOOT_168_atmega328.hex'
p118
sS'path'
p119
S'atmega'
p120
sS'unlock_bits'
p121
S'0x3F'
p122
ssS'upload'
p123
(dp124
S'speed'
p125
S'57600'
p126
sS'maximum_size'
p127
S'30720'
p128
sS'protocol'
p129
S'arduino'
p130
ssS'name'
p131
S'Arduino Duemilanove w/ ATmega328'
p132
sS'build'
p133
(dp134
S'core'
p135
S'arduino'
p136
sS'mcu'
p137
S'atmega328p'
p138
sS'f_cpu'
p139
S'16000000L'
p140
sS'variant'
p141
S'standard'
p142
ssaa(lp143
S'diecimila'
p144
a(dp145
S'bootloader'
p146
(dp147
S'extended_fuses'
p148
S'0x00'
p149
sS'high_fuses'
p150
S'0xdd'
p151
sS'low_fuses'
p152
S'0xff'
p153
sS'lock_bits'
p154
S'0x0F'
p155
sS'file'
p156
S'ATmegaBOOT_168_diecimila.hex'
p157
sS'path'
p158
S'atmega'
p159
sS'unlock_bits'
p160
S'0x3F'
p161
ssS'upload'
p162
(dp163
S'speed'
p164
S'19200'
p165
sS'maximum_size'
p166
S'14336'
p167
sS'protocol'
p168
S'arduino'
p169
ssS'name'
p170
S'Arduino Diecimila or Duemilanove w/ ATmega168'
p171
sS'build'
p172
(dp173
S'core'
p174
S'arduino'
p175
sS'mcu'
p176
S'atmega168'
p177
sS'f_cpu'
p178
S'16000000L'
p179
sS'variant'
p180
S'standard'
p181
ssaa(lp182
S'nano328'
p183
a(dp184
S'bootloader'
p185
(dp186
S'extended_fuses'
p187
S'0x05'
p188
sS'high_fuses'
p189
S'0xDA'
p190
sS'low_fuses'
p191
S'0xFF'
p192
sS'lock_bits'
p193
S'0x0F'
p194
sS'file'
p195
S'ATmegaBOOT_168_atmega328.hex'
p196
sS'path'
p197
S'atmega'
p198
sS'unlock_bits'
p199
S'0x3F'
p200
ssS'upload'
p201
(dp202
S'speed'
p203
S'57600'
p204
sS'maximum_size'
p205
S'30720'
p206
sS'protocol'
p207
S'arduino'
p208
ssS'name'
p209
S'Arduino Nano w/ ATmega328'
p210
sS'build'
p211
(dp212
S'core'
p213
S'arduino'
p214
sS'mcu'
p215
S'atmega328p'
p216
sS'f_cpu'
p217
S'16000000L'
p218
sS'variant'
p219
S'eightanaloginputs'
p220
ssaa(lp221
S'nano'
p222
a(dp223
S'bootloader'
p224
(dp225
S'extended_fuses'
p226
S'0x00'
p227
sS'high_fuses'
p228
S'0xdd'
p229
sS'low_fuses'
p230
S'0xff'
p231
sS'lock_bits'
p232
S'0x0F'
p233
sS'file'
p234
S'ATmegaBOOT_168_diecimila.hex'
p235
sS'path'
p236
S'atmega'
p237
sS'unlock_bits'
p238
S'0x3F'
p239
ssS'upload'
p240
(dp241
S'speed'
p242
S'19200'
p243
sS'maximum_size'
p244
S'14336'
p245
sS'protocol'
p246
S'arduino'
p247
ssS'name'
p248
S'Arduino Nano w/ ATmega168'
p249
sS'build'
p250
(dp251
S'core'
p252
S'arduino'
p253
sS'mcu'
p254
S'atmega168'
p255
sS'f_cpu'
p256
S'16000000L'
p257
sS'variant'
p258
S'eightanaloginputs'
p259
ssaa(lp260
S'mega2560'
p261
a(dp262
S'bootloader'
p263
(dp264
S'extended_fuses'
p265
S'0xFD'
p266
sS'high_fuses'
p267
S'0xD8'
p268
sS'low_fuses'
p269
S'0xFF'
p270
sS'lock_bits'
p271
S'0x0F'
p272
sS'file'
p273
S'stk500boot_v2_mega2560.hex'
p274
sS'path'
p275
S'stk500v2'
p276
sS'unlock_bits'
p277
S'0x3F'
p278
ssS'upload'
p279
(dp280
S'speed'
p281
S'115200'
p282
sS'maximum_size'
p283
S'258048'
p284
sS'protocol'
p285
S'stk500v2'
p286
ssS'name'
p287
S'Arduino Mega 2560 or Mega ADK'
p288
sS'build'
p289
(dp290
S'core'
p291
S'arduino'
p292
sS'mcu'
p293
S'atmega2560'
p294
sS'f_cpu'
p295
S'16000000L'
p296
sS'variant'
p297
S'mega'
p298
ssaa(lp299
S'mega'
p300
a(dp301
S'bootloader'
p302
(dp303
S'extended_fuses'
p304
S'0xF5'
p305
sS'high_fuses'
p306
S'0xDA'
p307
sS'low_fuses'
p308
S'0xFF'
p309
sS'lock_bits'
p310
S'0x0F'
p311
sS'file'
p312
S'ATmegaBOOT_168_atmega1280.hex'
p313
sS'path'
p314
S'atmega'
p315
sS'unlock_bits'
p316
S'0x3F'
p317
ssS'upload'
p318
(dp319
S'speed'
p320
S'57600'
p321
sS'maximum_size'
p322
S'126976'
p323
sS'protocol'
p324
S'arduino'
p325
ssS'name'
p326
S'Arduino Mega (ATmega1280)'
p327
sS'build'
p328
(dp329
S'core'
p330
S'arduino'
p331
sS'mcu'
p332
S'atmega1280'
p333
sS'f_cpu'
p334
S'16000000L'
p335
sS'variant'
p336
S'mega'
p337
ssaa(lp338
S'leonardo'
p339
a(dp340
S'bootloader'
p341
(dp342
S'extended_fuses'
p343
S'0xcb'
p344
sS'high_fuses'
p345
S'0xd8'
p346
sS'low_fuses'
p347
S'0xff'
p348
sS'lock_bits'
p349
S'0x2F'
p350
sS'file'
p351
S'Caterina-Leonardo.hex'
p352
sS'path'
p353
S'caterina'
p354
sS'unlock_bits'
p355
S'0x3F'
p356
ssS'upload'
p357
(dp358
S'speed'
p359
S'57600'
p360
sS'maximum_size'
p361
S'28672'
p362
sS'protocol'
p363
S'avr109'
p364
sS'disable_flushing'
p365
S'true'
p366
ssS'name'
p367
S'Arduino Leonardo'
p368
sS'build'
p369
(dp370
S'core'
p371
S'arduino'
p372
sS'f_cpu'
p373
S'16000000L'
p374
sS'vid'
p375
S'0x2341'
p376
sS'pid'
p377
S'0x8036'
p378
sS'variant'
p379
S'leonardo'
p380
sS'mcu'
p381
S'atmega32u4'
p382
ssaa(lp383
S'mini328'
p384
a(dp385
S'bootloader'
p386
(dp387
S'extended_fuses'
p388
S'0x05'
p389
sS'high_fuses'
p390
S'0xd8'
p391
sS'low_fuses'
p392
S'0xff'
p393
sS'lock_bits'
p394
S'0x0F'
p395
sS'file'
p396
S'optiboot_atmega328-Mini.hex'
p397
sS'path'
p398
S'optiboot'
p399
sS'unlock_bits'
p400
S'0x3F'
p401
ssS'upload'
p402
(dp403
S'speed'
p404
S'115200'
p405
sS'maximum_size'
p406
S'28672'
p407
sS'protocol'
p408
S'arduino'
p409
ssS'name'
p410
S'Arduino Mini w/ ATmega328'
p411
sS'build'
p412
(dp413
S'core'
p414
S'arduino'
p415
sS'mcu'
p416
S'atmega328p'
p417
sS'f_cpu'
p418
S'16000000L'
p419
sS'variant'
p420
S'eightanaloginputs'
p421
ssaa(lp422
S'mini'
p423
a(dp424
S'bootloader'
p425
(dp426
S'extended_fuses'
p427
S'0x00'
p428
sS'high_fuses'
p429
S'0xdd'
p430
sS'low_fuses'
p431
S'0xff'
p432
sS'lock_bits'
p433
S'0x0F'
p434
sS'file'
p435
S'ATmegaBOOT_168_ng.hex'
p436
sS'path'
p437
S'atmega'
p438
sS'unlock_bits'
p439
S'0x3F'
p440
ssS'upload'
p441
(dp442
S'speed'
p443
S'19200'
p444
sS'maximum_size'
p445
S'14336'
p446
sS'protocol'
p447
S'arduino'
p448
ssS'name'
p449
S'Arduino Mini w/ ATmega168'
p450
sS'build'
p451
(dp452
S'core'
p453
S'arduino'
p454
sS'mcu'
p455
S'atmega168'
p456
sS'f_cpu'
p457
S'16000000L'
p458
sS'variant'
p459
S'eightanaloginputs'
p460
ssaa(lp461
S'ethernet'
p462
a(dp463
S'bootloader'
p464
(dp465
S'extended_fuses'
p466
S'0x05'
p467
sS'high_fuses'
p468
S'0xde'
p469
sS'low_fuses'
p470
S'0xff'
p471
sS'lock_bits'
p472
S'0x0F'
p473
sS'file'
p474
S'optiboot_atmega328.hex'
p475
sS'path'
p476
S'optiboot'
p477
sS'unlock_bits'
p478
S'0x3F'
p479
ssS'upload'
p480
(dp481
S'speed'
p482
S'115200'
p483
sS'maximum_size'
p484
S'32256'
p485
sS'protocol'
p486
S'arduino'
p487
ssS'name'
p488
S'Arduino Ethernet'
p489
sS'build'
p490
(dp491
S'f_cpu'
p492
S'16000000L'
p493
sS'mcu'
p494
S'atmega328p'
p495
sS'variant'
p496
S'standard'
p497
sS'core'
p498
S'arduino'
p499
ssaa(lp500
S'fio'
p501
a(dp502
S'bootloader'
p503
(dp504
S'extended_fuses'
p505
S'0x05'
p506
sS'high_fuses'
p507
S'0xDA'
p508
sS'low_fuses'
p509
S'0xFF'
p510
sS'lock_bits'
p511
S'0x0F'
p512
sS'file'
p513
S'ATmegaBOOT_168_atmega328_pro_8MHz.hex'
p514
sS'path'
p515
S'arduino:atmega'
p516
sS'unlock_bits'
p517
S'0x3F'
p518
ssS'upload'
p519
(dp520
S'speed'
p521
S'57600'
p522
sS'maximum_size'
p523
S'30720'
p524
sS'protocol'
p525
S'arduino'
p526
ssS'name'
p527
S'Arduino Fio'
p528
sS'build'
p529
(dp530
S'core'
p531
S'arduino'
p532
sS'mcu'
p533
S'atmega328p'
p534
sS'f_cpu'
p535
S'8000000L'
p536
sS'variant'
p537
S'eightanaloginputs'
p538
ssaa(lp539
S'bt328'
p540
a(dp541
S'bootloader'
p542
(dp543
S'extended_fuses'
p544
S'0x05'
p545
sS'high_fuses'
p546
S'0xd8'
p547
sS'low_fuses'
p548
S'0xff'
p549
sS'lock_bits'
p550
S'0x0F'
p551
sS'file'
p552
S'ATmegaBOOT_168_atmega328_bt.hex'
p553
sS'path'
p554
S'bt'
p555
sS'unlock_bits'
p556
S'0x3F'
p557
ssS'upload'
p558
(dp559
S'speed'
p560
S'19200'
p561
sS'maximum_size'
p562
S'28672'
p563
sS'protocol'
p564
S'arduino'
p565
sS'disable_flushing'
p566
S'true'
p567
ssS'name'
p568
S'Arduino BT w/ ATmega328'
p569
sS'build'
p570
(dp571
S'core'
p572
S'arduino'
p573
sS'mcu'
p574
S'atmega328p'
p575
sS'f_cpu'
p576
S'16000000L'
p577
sS'variant'
p578
S'eightanaloginputs'
p579
ssaa(lp580
S'bt'
p581
a(dp582
S'bootloader'
p583
(dp584
S'extended_fuses'
p585
S'0x00'
p586
sS'high_fuses'
p587
S'0xdd'
p588
sS'low_fuses'
p589
S'0xff'
p590
sS'lock_bits'
p591
S'0x0F'
p592
sS'file'
p593
S'ATmegaBOOT_168.hex'
p594
sS'path'
p595
S'bt'
p596
sS'unlock_bits'
p597
S'0x3F'
p598
ssS'upload'
p599
(dp600
S'speed'
p601
S'19200'
p602
sS'maximum_size'
p603
S'14336'
p604
sS'protocol'
p605
S'arduino'
p606
sS'disable_flushing'
p607
S'true'
p608
ssS'name'
p609
S'Arduino BT w/ ATmega168'
p610
sS'build'
p611
(dp612
S'core'
p613
S'arduino'
p614
sS'mcu'
p615
S'atmega168'
p616
sS'f_cpu'
p617
S'16000000L'
p618
sS'variant'
p619
S'eightanaloginputs'
p620
ssaa(lp621
S'lilypad328'
p622
a(dp623
S'bootloader'
p624
(dp625
S'extended_fuses'
p626
S'0x05'
p627
sS'high_fuses'
p628
S'0xDA'
p629
sS'low_fuses'
p630
S'0xFF'
p631
sS'lock_bits'
p632
S'0x0F'
p633
sS'file'
p634
S'ATmegaBOOT_168_atmega328_pro_8MHz.hex'
p635
sS'path'
p636
S'atmega'
p637
sS'unlock_bits'
p638
S'0x3F'
p639
ssS'upload'
p640
(dp641
S'speed'
p642
S'57600'
p643
sS'maximum_size'
p644
S'30720'
p645
sS'protocol'
p646
S'arduino'
p647
ssS'name'
p648
S'LilyPad Arduino w/ ATmega328'
p649
sS'build'
p650
(dp651
S'core'
p652
S'arduino'
p653
sS'mcu'
p654
S'atmega328p'
p655
sS'f_cpu'
p656
S'8000000L'
p657
sS'variant'
p658
S'standard'
p659
ssaa(lp660
S'lilypad'
p661
a(dp662
S'bootloader'
p663
(dp664
S'extended_fuses'
p665
S'0x00'
p666
sS'high_fuses'
p667
S'0xdd'
p668
sS'low_fuses'
p669
S'0xe2'
p670
sS'lock_bits'
p671
S'0x0F'
p672
sS'file'
p673
S'LilyPadBOOT_168.hex'
p674
sS'path'
p675
S'lilypad'
p676
sS'unlock_bits'
p677
S'0x3F'
p678
ssS'upload'
p679
(dp680
S'speed'
p681
S'19200'
p682
sS'maximum_size'
p683
S'14336'
p684
sS'protocol'
p685
S'arduino'
p686
ssS'name'
p687
S'LilyPad Arduino w/ ATmega168'
p688
sS'build'
p689
(dp690
S'core'
p691
S'arduino'
p692
sS'mcu'
p693
S'atmega168'
p694
sS'f_cpu'
p695
S'8000000L'
p696
sS'variant'
p697
S'standard'
p698
ssaa(lp699
S'pro5v328'
p700
a(dp701
S'bootloader'
p702
(dp703
S'extended_fuses'
p704
S'0x05'
p705
sS'high_fuses'
p706
S'0xDA'
p707
sS'low_fuses'
p708
S'0xFF'
p709
sS'lock_bits'
p710
S'0x0F'
p711
sS'file'
p712
S'ATmegaBOOT_168_atmega328.hex'
p713
sS'path'
p714
S'atmega'
p715
sS'unlock_bits'
p716
S'0x3F'
p717
ssS'upload'
p718
(dp719
S'speed'
p720
S'57600'
p721
sS'maximum_size'
p722
S'30720'
p723
sS'protocol'
p724
S'arduino'
p725
ssS'name'
p726
S'Arduino Pro or Pro Mini (5V, 16 MHz) w/ ATmega328'
p727
sS'build'
p728
(dp729
S'core'
p730
S'arduino'
p731
sS'mcu'
p732
S'atmega328p'
p733
sS'f_cpu'
p734
S'16000000L'
p735
sS'variant'
p736
S'standard'
p737
ssaa(lp738
S'pro5v'
p739
a(dp740
S'bootloader'
p741
(dp742
S'extended_fuses'
p743
S'0x00'
p744
sS'high_fuses'
p745
S'0xdd'
p746
sS'low_fuses'
p747
S'0xff'
p748
sS'lock_bits'
p749
S'0x0F'
p750
sS'file'
p751
S'ATmegaBOOT_168_diecimila.hex'
p752
sS'path'
p753
S'atmega'
p754
sS'unlock_bits'
p755
S'0x3F'
p756
ssS'upload'
p757
(dp758
S'speed'
p759
S'19200'
p760
sS'maximum_size'
p761
S'14336'
p762
sS'protocol'
p763
S'arduino'
p764
ssS'name'
p765
S'Arduino Pro or Pro Mini (5V, 16 MHz) w/ ATmega168'
p766
sS'build'
p767
(dp768
S'core'
p769
S'arduino'
p770
sS'mcu'
p771
S'atmega168'
p772
sS'f_cpu'
p773
S'16000000L'
p774
sS'variant'
p775
S'standard'
p776
ssaa(lp777
S'pro328'
p778
a(dp779
S'bootloader'
p780
(dp781
S'extended_fuses'
p782
S'0x05'
p783
sS'high_fuses'
p784
S'0xDA'
p785
sS'low_fuses'
p786
S'0xFF'
p787
sS'lock_bits'
p788
S'0x0F'
p789
sS'file'
p790
S'ATmegaBOOT_168_atmega328_pro_8MHz.hex'
p791
sS'path'
p792
S'atmega'
p793
sS'unlock_bits'
p794
S'0x3F'
p795
ssS'upload'
p796
(dp797
S'speed'
p798
S'57600'
p799
sS'maximum_size'
p800
S'30720'
p801
sS'protocol'
p802
S'arduino'
p803
ssS'name'
p804
S'Arduino Pro or Pro Mini (3.3V, 8 MHz) w/ ATmega328'
p805
sS'build'
p806
(dp807
S'core'
p808
S'arduino'
p809
sS'mcu'
p810
S'atmega328p'
p811
sS'f_cpu'
p812
S'8000000L'
p813
sS'variant'
p814
S'standard'
p815
ssaa(lp816
S'pro'
p817
a(dp818
S'bootloader'
p819
(dp820
S'extended_fuses'
p821
S'0x00'
p822
sS'high_fuses'
p823
S'0xdd'
p824
sS'low_fuses'
p825
S'0xc6'
p826
sS'lock_bits'
p827
S'0x0F'
p828
sS'file'
p829
S'ATmegaBOOT_168_pro_8MHz.hex'
p830
sS'path'
p831
S'atmega'
p832
sS'unlock_bits'
p833
S'0x3F'
p834
ssS'upload'
p835
(dp836
S'speed'
p837
S'19200'
p838
sS'maximum_size'
p839
S'14336'
p840
sS'protocol'
p841
S'arduino'
p842
ssS'name'
p843
S'Arduino Pro or Pro Mini (3.3V, 8 MHz) w/ ATmega168'
p844
sS'build'
p845
(dp846
S'core'
p847
S'arduino'
p848
sS'mcu'
p849
S'atmega168'
p850
sS'f_cpu'
p851
S'8000000L'
p852
sS'variant'
p853
S'standard'
p854
ssaa(lp855
S'atmega168'
p856
a(dp857
S'bootloader'
p858
(dp859
S'extended_fuses'
p860
S'0x00'
p861
sS'high_fuses'
p862
S'0xdd'
p863
sS'low_fuses'
p864
S'0xff'
p865
sS'lock_bits'
p866
S'0x0F'
p867
sS'file'
p868
S'ATmegaBOOT_168_ng.hex'
p869
sS'path'
p870
S'atmega'
p871
sS'unlock_bits'
p872
S'0x3F'
p873
ssS'upload'
p874
(dp875
S'speed'
p876
S'19200'
p877
sS'maximum_size'
p878
S'14336'
p879
sS'protocol'
p880
S'arduino'
p881
ssS'name'
p882
S'Arduino NG or older w/ ATmega168'
p883
sS'build'
p884
(dp885
S'core'
p886
S'arduino'
p887
sS'mcu'
p888
S'atmega168'
p889
sS'f_cpu'
p890
S'16000000L'
p891
sS'variant'
p892
S'standard'
p893
ssaa(lp894
S'atmega8'
p895
a(dp896
S'bootloader'
p897
(dp898
S'high_fuses'
p899
S'0xca'
p900
sS'low_fuses'
p901
S'0xdf'
p902
sS'lock_bits'
p903
S'0x0F'
p904
sS'file'
p905
S'ATmegaBOOT.hex'
p906
sS'path'
p907
S'atmega8'
p908
sS'unlock_bits'
p909
S'0x3F'
p910
ssS'upload'
p911
(dp912
S'speed'
p913
S'19200'
p914
sS'maximum_size'
p915
S'7168'
p916
sS'protocol'
p917
S'arduino'
p918
ssS'name'
p919
S'Arduino NG or older w/ ATmega8'
p920
sS'build'
p921
(dp922
S'core'
p923
S'arduino'
p924
sS'mcu'
p925
S'atmega8'
p926
sS'f_cpu'
p927
S'16000000L'
p928
sS'variant'
p929
S'standard'
p930
ssaatp931
Rp932
(dp933
S'default'
p934
S'uno'
p935
sbtp936
a(S'used_libs'
p937
(lp938
S'/usr/share/arduino/libraries/SoftwareSerial'
p939
aS'/usr/share/arduino/libraries/RS485_protocol'
p940
aS'/usr/share/arduino/hardware/arduino/cores/arduino'
p941
atp942
a(S'make'
p943
S'/usr/bin/make'
p944
tp945
a(S'arduino_libraries_dir'
p946
S'/usr/share/arduino/libraries'
p947
tp948
a(S'cc'
p949
S'/usr/bin/avr-gcc'
p950
tp951
a(S'cflags'
p952
g2
(g3
g4
(lp953
tp954
Rp955
tp956
a(S'cxxflags'
p957
g2
(g3
g4
(lp958
S'-fno-exceptions'
p959
atp960
Rp961
tp962
a(S'arduino_variants_dir'
p963
S'/usr/share/arduino/hardware/arduino/variants'
p964
tp965
a(S'serial'
p966
S'/usr/bin/picocom'
p967
tp968
a(S'stty'
p969
S'/bin/stty'
p970
tp971
a(S'version.txt'
p972
S'/usr/share/arduino/lib/version.txt'
p973
tp974
a(S'arduino_core_dir'
p975
g941
tp976
a(S'boards.txt'
p977
S'/usr/share/arduino/hardware/arduino/boards.txt'
p978
tp979
a(S'avrdude.conf'
p980
S'/usr/share/arduino/hardware/tools/avrdude.conf'
p981
tp982
a(S'deps'
p983
g2
(g3
g4
(lp984
S'.build/nano328/src/dependencies.d'
p985
aS'.build/nano328/arduino/dependencies.d'
p986
aS'.build/nano328/SoftwareSerial/dependencies.d'
p987
aS'.build/nano328/RS485_protocol/dependencies.d'
p988
atp989
Rp990
tp991
a.