(lp0
(S'cppflags'
p1
ccopy_reg
_reconstructor
p2
(cino.utils
SpaceList
p3
c__builtin__
list
p4
(lp5
S'-mmcu=atmega328p'
p6
aS'-DF_CPU=16000000L'
p7
aS'-DARDUINO=101'
p8
aS'-I/usr/share/arduino/hardware/arduino/cores/arduino'
p9
aS'-ffunction-sections'
p10
aS'-fdata-sections'
p11
aS'-g'
p12
aS'-Os'
p13
aS'-w'
p14
aS'-I/usr/share/arduino/hardware/arduino/variants/eightanaloginputs'
p15
aS'-I/usr/share/arduino/libraries/LnFunctions'
p16
aS'-I/usr/share/arduino/libraries/VirtualWire115'
p17
aS'-I/usr/share/arduino/libraries/VirtualWire115/util'
p18
aS'-I/usr/share/arduino/libraries/VirtualWire115/doc'
p19
aS'-I/usr/share/arduino/hardware/arduino/cores/arduino'
p20
atp21
Rp22
tp23
a(S'version.txt'
p24
S'/usr/share/arduino/lib/version.txt'
p25
tp26
a(S'used_libs'
p27
(lp28
S'/usr/share/arduino/libraries/LnFunctions'
p29
aS'/usr/share/arduino/libraries/VirtualWire115'
p30
aS'/usr/share/arduino/hardware/arduino/cores/arduino'
p31
atp32
a(S'cc'
p33
S'/usr/bin/avr-gcc'
p34
tp35
a(S'make'
p36
S'/usr/bin/make'
p37
tp38
a(S'build_dir'
p39
S'.build/nano328'
p40
tp41
a(S'arduino_core_dir'
p42
g31
tp43
a(S'boards.txt'
p44
S'/usr/share/arduino/hardware/arduino/boards.txt'
p45
tp46
a(S'cxxflags'
p47
g2
(g3
g4
(lp48
S'-fno-exceptions'
p49
atp50
Rp51
tp52
a(S'arduino_variants_dir'
p53
S'/usr/share/arduino/hardware/arduino/variants'
p54
tp55
a(S'deps'
p56
g2
(g3
g4
(lp57
S'.build/nano328/src/dependencies.d'
p58
aS'.build/nano328/arduino/dependencies.d'
p59
aS'.build/nano328/LnFunctions/dependencies.d'
p60
aS'.build/nano328/VirtualWire115/dependencies.d'
p61
atp62
Rp63
tp64
a(S'ar'
p65
S'/usr/bin/avr-ar'
p66
tp67
a(S'names'
p68
(dp69
S'cpp'
p70
S'%s.cpp'
p71
sS'obj'
p72
S'%s.o'
p73
sg56
S'%s.d'
p74
sS'lib'
p75
S'lib%s.a'
p76
stp77
a(S'cflags'
p78
g2
(g3
g4
(lp79
tp80
Rp81
tp82
a(S'ldflags'
p83
g2
(g3
g4
(lp84
g6
aS'-Wl,-Os'
p85
aS'-Wl,--gc-sections'
p86
atp87
Rp88
tp89
a(S'arduino_libraries_dir'
p90
S'/usr/share/arduino/libraries'
p91
tp92
a(S'arduino_lib_version'
p93
g2
(cino.environment
Version
p94
c__builtin__
tuple
p95
(I1
I0
I1
tp96
tp97
Rp98
tp99
a(S'objcopy'
p100
S'/usr/bin/avr-objcopy'
p101
tp102
a(S'board_models'
p103
cino.environment
BoardModels
p104
((lp105
(lp106
S'uno'
p107
a(dp108
S'build'
p109
(dp110
S'core'
p111
S'arduino'
p112
sS'mcu'
p113
S'atmega328p'
p114
sS'f_cpu'
p115
S'16000000L'
p116
sS'variant'
p117
S'standard'
p118
ssS'bootloader'
p119
(dp120
S'extended_fuses'
p121
S'0x05'
p122
sS'high_fuses'
p123
S'0xde'
p124
sS'low_fuses'
p125
S'0xff'
p126
sS'lock_bits'
p127
S'0x0F'
p128
sS'file'
p129
S'optiboot_atmega328.hex'
p130
sS'path'
p131
S'optiboot'
p132
sS'unlock_bits'
p133
S'0x3F'
p134
ssS'name'
p135
S'Arduino Uno'
p136
sS'upload'
p137
(dp138
S'speed'
p139
S'115200'
p140
sS'maximum_size'
p141
S'32256'
p142
sS'protocol'
p143
S'arduino'
p144
ssaa(lp145
S'atmega328'
p146
a(dp147
S'build'
p148
(dp149
S'core'
p150
S'arduino'
p151
sS'mcu'
p152
S'atmega328p'
p153
sS'f_cpu'
p154
S'16000000L'
p155
sS'variant'
p156
S'standard'
p157
ssS'bootloader'
p158
(dp159
S'extended_fuses'
p160
S'0x05'
p161
sS'high_fuses'
p162
S'0xDA'
p163
sS'low_fuses'
p164
S'0xFF'
p165
sS'lock_bits'
p166
S'0x0F'
p167
sS'file'
p168
S'ATmegaBOOT_168_atmega328.hex'
p169
sS'path'
p170
S'atmega'
p171
sS'unlock_bits'
p172
S'0x3F'
p173
ssS'name'
p174
S'Arduino Duemilanove w/ ATmega328'
p175
sS'upload'
p176
(dp177
S'speed'
p178
S'57600'
p179
sS'maximum_size'
p180
S'30720'
p181
sS'protocol'
p182
S'arduino'
p183
ssaa(lp184
S'diecimila'
p185
a(dp186
S'build'
p187
(dp188
S'core'
p189
S'arduino'
p190
sS'mcu'
p191
S'atmega168'
p192
sS'f_cpu'
p193
S'16000000L'
p194
sS'variant'
p195
S'standard'
p196
ssS'bootloader'
p197
(dp198
S'extended_fuses'
p199
S'0x00'
p200
sS'high_fuses'
p201
S'0xdd'
p202
sS'low_fuses'
p203
S'0xff'
p204
sS'lock_bits'
p205
S'0x0F'
p206
sS'file'
p207
S'ATmegaBOOT_168_diecimila.hex'
p208
sS'path'
p209
S'atmega'
p210
sS'unlock_bits'
p211
S'0x3F'
p212
ssS'name'
p213
S'Arduino Diecimila or Duemilanove w/ ATmega168'
p214
sS'upload'
p215
(dp216
S'speed'
p217
S'19200'
p218
sS'maximum_size'
p219
S'14336'
p220
sS'protocol'
p221
S'arduino'
p222
ssaa(lp223
S'nano328'
p224
a(dp225
S'build'
p226
(dp227
S'core'
p228
S'arduino'
p229
sS'mcu'
p230
S'atmega328p'
p231
sS'f_cpu'
p232
S'16000000L'
p233
sS'variant'
p234
S'eightanaloginputs'
p235
ssS'bootloader'
p236
(dp237
S'extended_fuses'
p238
S'0x05'
p239
sS'high_fuses'
p240
S'0xDA'
p241
sS'low_fuses'
p242
S'0xFF'
p243
sS'lock_bits'
p244
S'0x0F'
p245
sS'file'
p246
S'ATmegaBOOT_168_atmega328.hex'
p247
sS'path'
p248
S'atmega'
p249
sS'unlock_bits'
p250
S'0x3F'
p251
ssS'name'
p252
S'Arduino Nano w/ ATmega328'
p253
sS'upload'
p254
(dp255
S'speed'
p256
S'57600'
p257
sS'maximum_size'
p258
S'30720'
p259
sS'protocol'
p260
S'arduino'
p261
ssaa(lp262
S'nano'
p263
a(dp264
S'build'
p265
(dp266
S'core'
p267
S'arduino'
p268
sS'mcu'
p269
S'atmega168'
p270
sS'f_cpu'
p271
S'16000000L'
p272
sS'variant'
p273
S'eightanaloginputs'
p274
ssS'bootloader'
p275
(dp276
S'extended_fuses'
p277
S'0x00'
p278
sS'high_fuses'
p279
S'0xdd'
p280
sS'low_fuses'
p281
S'0xff'
p282
sS'lock_bits'
p283
S'0x0F'
p284
sS'file'
p285
S'ATmegaBOOT_168_diecimila.hex'
p286
sS'path'
p287
S'atmega'
p288
sS'unlock_bits'
p289
S'0x3F'
p290
ssS'name'
p291
S'Arduino Nano w/ ATmega168'
p292
sS'upload'
p293
(dp294
S'speed'
p295
S'19200'
p296
sS'maximum_size'
p297
S'14336'
p298
sS'protocol'
p299
S'arduino'
p300
ssaa(lp301
S'mega2560'
p302
a(dp303
S'build'
p304
(dp305
S'core'
p306
S'arduino'
p307
sS'mcu'
p308
S'atmega2560'
p309
sS'f_cpu'
p310
S'16000000L'
p311
sS'variant'
p312
S'mega'
p313
ssS'bootloader'
p314
(dp315
S'extended_fuses'
p316
S'0xFD'
p317
sS'high_fuses'
p318
S'0xD8'
p319
sS'low_fuses'
p320
S'0xFF'
p321
sS'lock_bits'
p322
S'0x0F'
p323
sS'file'
p324
S'stk500boot_v2_mega2560.hex'
p325
sS'path'
p326
S'stk500v2'
p327
sS'unlock_bits'
p328
S'0x3F'
p329
ssS'name'
p330
S'Arduino Mega 2560 or Mega ADK'
p331
sS'upload'
p332
(dp333
S'speed'
p334
S'115200'
p335
sS'maximum_size'
p336
S'258048'
p337
sS'protocol'
p338
S'stk500v2'
p339
ssaa(lp340
S'mega'
p341
a(dp342
S'build'
p343
(dp344
S'core'
p345
S'arduino'
p346
sS'mcu'
p347
S'atmega1280'
p348
sS'f_cpu'
p349
S'16000000L'
p350
sS'variant'
p351
S'mega'
p352
ssS'bootloader'
p353
(dp354
S'extended_fuses'
p355
S'0xF5'
p356
sS'high_fuses'
p357
S'0xDA'
p358
sS'low_fuses'
p359
S'0xFF'
p360
sS'lock_bits'
p361
S'0x0F'
p362
sS'file'
p363
S'ATmegaBOOT_168_atmega1280.hex'
p364
sS'path'
p365
S'atmega'
p366
sS'unlock_bits'
p367
S'0x3F'
p368
ssS'name'
p369
S'Arduino Mega (ATmega1280)'
p370
sS'upload'
p371
(dp372
S'speed'
p373
S'57600'
p374
sS'maximum_size'
p375
S'126976'
p376
sS'protocol'
p377
S'arduino'
p378
ssaa(lp379
S'leonardo'
p380
a(dp381
S'build'
p382
(dp383
S'core'
p384
S'arduino'
p385
sS'f_cpu'
p386
S'16000000L'
p387
sS'vid'
p388
S'0x2341'
p389
sS'pid'
p390
S'0x8036'
p391
sS'variant'
p392
S'leonardo'
p393
sS'mcu'
p394
S'atmega32u4'
p395
ssS'bootloader'
p396
(dp397
S'extended_fuses'
p398
S'0xcb'
p399
sS'high_fuses'
p400
S'0xd8'
p401
sS'low_fuses'
p402
S'0xff'
p403
sS'lock_bits'
p404
S'0x2F'
p405
sS'file'
p406
S'Caterina-Leonardo.hex'
p407
sS'path'
p408
S'caterina'
p409
sS'unlock_bits'
p410
S'0x3F'
p411
ssS'name'
p412
S'Arduino Leonardo'
p413
sS'upload'
p414
(dp415
S'speed'
p416
S'57600'
p417
sS'maximum_size'
p418
S'28672'
p419
sS'protocol'
p420
S'avr109'
p421
sS'disable_flushing'
p422
S'true'
p423
ssaa(lp424
S'mini328'
p425
a(dp426
S'build'
p427
(dp428
S'core'
p429
S'arduino'
p430
sS'mcu'
p431
S'atmega328p'
p432
sS'f_cpu'
p433
S'16000000L'
p434
sS'variant'
p435
S'eightanaloginputs'
p436
ssS'bootloader'
p437
(dp438
S'extended_fuses'
p439
S'0x05'
p440
sS'high_fuses'
p441
S'0xd8'
p442
sS'low_fuses'
p443
S'0xff'
p444
sS'lock_bits'
p445
S'0x0F'
p446
sS'file'
p447
S'optiboot_atmega328-Mini.hex'
p448
sS'path'
p449
S'optiboot'
p450
sS'unlock_bits'
p451
S'0x3F'
p452
ssS'name'
p453
S'Arduino Mini w/ ATmega328'
p454
sS'upload'
p455
(dp456
S'speed'
p457
S'115200'
p458
sS'maximum_size'
p459
S'28672'
p460
sS'protocol'
p461
S'arduino'
p462
ssaa(lp463
S'mini'
p464
a(dp465
S'build'
p466
(dp467
S'core'
p468
S'arduino'
p469
sS'mcu'
p470
S'atmega168'
p471
sS'f_cpu'
p472
S'16000000L'
p473
sS'variant'
p474
S'eightanaloginputs'
p475
ssS'bootloader'
p476
(dp477
S'extended_fuses'
p478
S'0x00'
p479
sS'high_fuses'
p480
S'0xdd'
p481
sS'low_fuses'
p482
S'0xff'
p483
sS'lock_bits'
p484
S'0x0F'
p485
sS'file'
p486
S'ATmegaBOOT_168_ng.hex'
p487
sS'path'
p488
S'atmega'
p489
sS'unlock_bits'
p490
S'0x3F'
p491
ssS'name'
p492
S'Arduino Mini w/ ATmega168'
p493
sS'upload'
p494
(dp495
S'speed'
p496
S'19200'
p497
sS'maximum_size'
p498
S'14336'
p499
sS'protocol'
p500
S'arduino'
p501
ssaa(lp502
S'ethernet'
p503
a(dp504
S'build'
p505
(dp506
S'f_cpu'
p507
S'16000000L'
p508
sS'mcu'
p509
S'atmega328p'
p510
sS'variant'
p511
S'standard'
p512
sS'core'
p513
S'arduino'
p514
ssS'bootloader'
p515
(dp516
S'extended_fuses'
p517
S'0x05'
p518
sS'high_fuses'
p519
S'0xde'
p520
sS'low_fuses'
p521
S'0xff'
p522
sS'lock_bits'
p523
S'0x0F'
p524
sS'file'
p525
S'optiboot_atmega328.hex'
p526
sS'path'
p527
S'optiboot'
p528
sS'unlock_bits'
p529
S'0x3F'
p530
ssS'name'
p531
S'Arduino Ethernet'
p532
sS'upload'
p533
(dp534
S'speed'
p535
S'115200'
p536
sS'maximum_size'
p537
S'32256'
p538
sS'protocol'
p539
S'arduino'
p540
ssaa(lp541
S'fio'
p542
a(dp543
S'build'
p544
(dp545
S'core'
p546
S'arduino'
p547
sS'mcu'
p548
S'atmega328p'
p549
sS'f_cpu'
p550
S'8000000L'
p551
sS'variant'
p552
S'eightanaloginputs'
p553
ssS'bootloader'
p554
(dp555
S'extended_fuses'
p556
S'0x05'
p557
sS'high_fuses'
p558
S'0xDA'
p559
sS'low_fuses'
p560
S'0xFF'
p561
sS'lock_bits'
p562
S'0x0F'
p563
sS'file'
p564
S'ATmegaBOOT_168_atmega328_pro_8MHz.hex'
p565
sS'path'
p566
S'arduino:atmega'
p567
sS'unlock_bits'
p568
S'0x3F'
p569
ssS'name'
p570
S'Arduino Fio'
p571
sS'upload'
p572
(dp573
S'speed'
p574
S'57600'
p575
sS'maximum_size'
p576
S'30720'
p577
sS'protocol'
p578
S'arduino'
p579
ssaa(lp580
S'bt328'
p581
a(dp582
S'build'
p583
(dp584
S'core'
p585
S'arduino'
p586
sS'mcu'
p587
S'atmega328p'
p588
sS'f_cpu'
p589
S'16000000L'
p590
sS'variant'
p591
S'eightanaloginputs'
p592
ssS'bootloader'
p593
(dp594
S'extended_fuses'
p595
S'0x05'
p596
sS'high_fuses'
p597
S'0xd8'
p598
sS'low_fuses'
p599
S'0xff'
p600
sS'lock_bits'
p601
S'0x0F'
p602
sS'file'
p603
S'ATmegaBOOT_168_atmega328_bt.hex'
p604
sS'path'
p605
S'bt'
p606
sS'unlock_bits'
p607
S'0x3F'
p608
ssS'name'
p609
S'Arduino BT w/ ATmega328'
p610
sS'upload'
p611
(dp612
S'speed'
p613
S'19200'
p614
sS'maximum_size'
p615
S'28672'
p616
sS'protocol'
p617
S'arduino'
p618
sS'disable_flushing'
p619
S'true'
p620
ssaa(lp621
S'bt'
p622
a(dp623
S'build'
p624
(dp625
S'core'
p626
S'arduino'
p627
sS'mcu'
p628
S'atmega168'
p629
sS'f_cpu'
p630
S'16000000L'
p631
sS'variant'
p632
S'eightanaloginputs'
p633
ssS'bootloader'
p634
(dp635
S'extended_fuses'
p636
S'0x00'
p637
sS'high_fuses'
p638
S'0xdd'
p639
sS'low_fuses'
p640
S'0xff'
p641
sS'lock_bits'
p642
S'0x0F'
p643
sS'file'
p644
S'ATmegaBOOT_168.hex'
p645
sS'path'
p646
S'bt'
p647
sS'unlock_bits'
p648
S'0x3F'
p649
ssS'name'
p650
S'Arduino BT w/ ATmega168'
p651
sS'upload'
p652
(dp653
S'speed'
p654
S'19200'
p655
sS'maximum_size'
p656
S'14336'
p657
sS'protocol'
p658
S'arduino'
p659
sS'disable_flushing'
p660
S'true'
p661
ssaa(lp662
S'lilypad328'
p663
a(dp664
S'build'
p665
(dp666
S'core'
p667
S'arduino'
p668
sS'mcu'
p669
S'atmega328p'
p670
sS'f_cpu'
p671
S'8000000L'
p672
sS'variant'
p673
S'standard'
p674
ssS'bootloader'
p675
(dp676
S'extended_fuses'
p677
S'0x05'
p678
sS'high_fuses'
p679
S'0xDA'
p680
sS'low_fuses'
p681
S'0xFF'
p682
sS'lock_bits'
p683
S'0x0F'
p684
sS'file'
p685
S'ATmegaBOOT_168_atmega328_pro_8MHz.hex'
p686
sS'path'
p687
S'atmega'
p688
sS'unlock_bits'
p689
S'0x3F'
p690
ssS'name'
p691
S'LilyPad Arduino w/ ATmega328'
p692
sS'upload'
p693
(dp694
S'speed'
p695
S'57600'
p696
sS'maximum_size'
p697
S'30720'
p698
sS'protocol'
p699
S'arduino'
p700
ssaa(lp701
S'lilypad'
p702
a(dp703
S'build'
p704
(dp705
S'core'
p706
S'arduino'
p707
sS'mcu'
p708
S'atmega168'
p709
sS'f_cpu'
p710
S'8000000L'
p711
sS'variant'
p712
S'standard'
p713
ssS'bootloader'
p714
(dp715
S'extended_fuses'
p716
S'0x00'
p717
sS'high_fuses'
p718
S'0xdd'
p719
sS'low_fuses'
p720
S'0xe2'
p721
sS'lock_bits'
p722
S'0x0F'
p723
sS'file'
p724
S'LilyPadBOOT_168.hex'
p725
sS'path'
p726
S'lilypad'
p727
sS'unlock_bits'
p728
S'0x3F'
p729
ssS'name'
p730
S'LilyPad Arduino w/ ATmega168'
p731
sS'upload'
p732
(dp733
S'speed'
p734
S'19200'
p735
sS'maximum_size'
p736
S'14336'
p737
sS'protocol'
p738
S'arduino'
p739
ssaa(lp740
S'pro5v328'
p741
a(dp742
S'build'
p743
(dp744
S'core'
p745
S'arduino'
p746
sS'mcu'
p747
S'atmega328p'
p748
sS'f_cpu'
p749
S'16000000L'
p750
sS'variant'
p751
S'standard'
p752
ssS'bootloader'
p753
(dp754
S'extended_fuses'
p755
S'0x05'
p756
sS'high_fuses'
p757
S'0xDA'
p758
sS'low_fuses'
p759
S'0xFF'
p760
sS'lock_bits'
p761
S'0x0F'
p762
sS'file'
p763
S'ATmegaBOOT_168_atmega328.hex'
p764
sS'path'
p765
S'atmega'
p766
sS'unlock_bits'
p767
S'0x3F'
p768
ssS'name'
p769
S'Arduino Pro or Pro Mini (5V, 16 MHz) w/ ATmega328'
p770
sS'upload'
p771
(dp772
S'speed'
p773
S'57600'
p774
sS'maximum_size'
p775
S'30720'
p776
sS'protocol'
p777
S'arduino'
p778
ssaa(lp779
S'pro5v'
p780
a(dp781
S'build'
p782
(dp783
S'core'
p784
S'arduino'
p785
sS'mcu'
p786
S'atmega168'
p787
sS'f_cpu'
p788
S'16000000L'
p789
sS'variant'
p790
S'standard'
p791
ssS'bootloader'
p792
(dp793
S'extended_fuses'
p794
S'0x00'
p795
sS'high_fuses'
p796
S'0xdd'
p797
sS'low_fuses'
p798
S'0xff'
p799
sS'lock_bits'
p800
S'0x0F'
p801
sS'file'
p802
S'ATmegaBOOT_168_diecimila.hex'
p803
sS'path'
p804
S'atmega'
p805
sS'unlock_bits'
p806
S'0x3F'
p807
ssS'name'
p808
S'Arduino Pro or Pro Mini (5V, 16 MHz) w/ ATmega168'
p809
sS'upload'
p810
(dp811
S'speed'
p812
S'19200'
p813
sS'maximum_size'
p814
S'14336'
p815
sS'protocol'
p816
S'arduino'
p817
ssaa(lp818
S'pro328'
p819
a(dp820
S'build'
p821
(dp822
S'core'
p823
S'arduino'
p824
sS'mcu'
p825
S'atmega328p'
p826
sS'f_cpu'
p827
S'8000000L'
p828
sS'variant'
p829
S'standard'
p830
ssS'bootloader'
p831
(dp832
S'extended_fuses'
p833
S'0x05'
p834
sS'high_fuses'
p835
S'0xDA'
p836
sS'low_fuses'
p837
S'0xFF'
p838
sS'lock_bits'
p839
S'0x0F'
p840
sS'file'
p841
S'ATmegaBOOT_168_atmega328_pro_8MHz.hex'
p842
sS'path'
p843
S'atmega'
p844
sS'unlock_bits'
p845
S'0x3F'
p846
ssS'name'
p847
S'Arduino Pro or Pro Mini (3.3V, 8 MHz) w/ ATmega328'
p848
sS'upload'
p849
(dp850
S'speed'
p851
S'57600'
p852
sS'maximum_size'
p853
S'30720'
p854
sS'protocol'
p855
S'arduino'
p856
ssaa(lp857
S'pro'
p858
a(dp859
S'build'
p860
(dp861
S'core'
p862
S'arduino'
p863
sS'mcu'
p864
S'atmega168'
p865
sS'f_cpu'
p866
S'8000000L'
p867
sS'variant'
p868
S'standard'
p869
ssS'bootloader'
p870
(dp871
S'extended_fuses'
p872
S'0x00'
p873
sS'high_fuses'
p874
S'0xdd'
p875
sS'low_fuses'
p876
S'0xc6'
p877
sS'lock_bits'
p878
S'0x0F'
p879
sS'file'
p880
S'ATmegaBOOT_168_pro_8MHz.hex'
p881
sS'path'
p882
S'atmega'
p883
sS'unlock_bits'
p884
S'0x3F'
p885
ssS'name'
p886
S'Arduino Pro or Pro Mini (3.3V, 8 MHz) w/ ATmega168'
p887
sS'upload'
p888
(dp889
S'speed'
p890
S'19200'
p891
sS'maximum_size'
p892
S'14336'
p893
sS'protocol'
p894
S'arduino'
p895
ssaa(lp896
S'atmega168'
p897
a(dp898
S'build'
p899
(dp900
S'core'
p901
S'arduino'
p902
sS'mcu'
p903
S'atmega168'
p904
sS'f_cpu'
p905
S'16000000L'
p906
sS'variant'
p907
S'standard'
p908
ssS'bootloader'
p909
(dp910
S'extended_fuses'
p911
S'0x00'
p912
sS'high_fuses'
p913
S'0xdd'
p914
sS'low_fuses'
p915
S'0xff'
p916
sS'lock_bits'
p917
S'0x0F'
p918
sS'file'
p919
S'ATmegaBOOT_168_ng.hex'
p920
sS'path'
p921
S'atmega'
p922
sS'unlock_bits'
p923
S'0x3F'
p924
ssS'name'
p925
S'Arduino NG or older w/ ATmega168'
p926
sS'upload'
p927
(dp928
S'speed'
p929
S'19200'
p930
sS'maximum_size'
p931
S'14336'
p932
sS'protocol'
p933
S'arduino'
p934
ssaa(lp935
S'atmega8'
p936
a(dp937
S'build'
p938
(dp939
S'core'
p940
S'arduino'
p941
sS'mcu'
p942
S'atmega8'
p943
sS'f_cpu'
p944
S'16000000L'
p945
sS'variant'
p946
S'standard'
p947
ssS'bootloader'
p948
(dp949
S'high_fuses'
p950
S'0xca'
p951
sS'low_fuses'
p952
S'0xdf'
p953
sS'lock_bits'
p954
S'0x0F'
p955
sS'file'
p956
S'ATmegaBOOT.hex'
p957
sS'path'
p958
S'atmega8'
p959
sS'unlock_bits'
p960
S'0x3F'
p961
ssS'name'
p962
S'Arduino NG or older w/ ATmega8'
p963
sS'upload'
p964
(dp965
S'speed'
p966
S'19200'
p967
sS'maximum_size'
p968
S'7168'
p969
sS'protocol'
p970
S'arduino'
p971
ssaatp972
Rp973
(dp974
S'default'
p975
S'uno'
p976
sbtp977
a(S'cxx'
p978
S'/usr/bin/avr-g++'
p979
tp980
a.